Archive member included because of file (symbol)

contiki-redbee-econotag.a(rimeaddr.o)
                              obj_redbee-econotag/contiki-mc1322x-main.o (rimeaddr_copy)
contiki-redbee-econotag.a(nullmac.o)
                              obj_redbee-econotag/contiki-mc1322x-main.o (nullmac_driver)
contiki-redbee-econotag.a(nullrdc.o)
                              obj_redbee-econotag/contiki-mc1322x-main.o (nullrdc_driver)
contiki-redbee-econotag.a(mac.o)
                              contiki-redbee-econotag.a(nullrdc.o) (mac_call_sent_callback)
contiki-redbee-econotag.a(framer-802154.o)
                              contiki-redbee-econotag.a(nullrdc.o) (framer_802154)
contiki-redbee-econotag.a(rpl-dag.o)
                              unicast-receiver.co (rpl_get_dag)
contiki-redbee-econotag.a(rpl-icmp6.o)
                              contiki-redbee-econotag.a(rpl-dag.o) (dao_output)
contiki-redbee-econotag.a(rpl-timers.o)
                              contiki-redbee-econotag.a(rpl-dag.o) (rpl_schedule_dao)
contiki-redbee-econotag.a(rpl-of-etx.o)
                              contiki-redbee-econotag.a(rpl-dag.o) (rpl_of_etx)
contiki-redbee-econotag.a(process.o)
                              obj_redbee-econotag/contiki-mc1322x-main.o (process_init)
contiki-redbee-econotag.a(autostart.o)
                              obj_redbee-econotag/contiki-mc1322x-main.o (autostart_start)
contiki-redbee-econotag.a(memb.o)
                              contiki-redbee-econotag.a(rpl-dag.o) (memb_alloc)
contiki-redbee-econotag.a(list.o)
                              contiki-redbee-econotag.a(rpl-dag.o) (list_init)
contiki-redbee-econotag.a(etimer.o)
                              contiki-redbee-econotag.a(rpl-timers.o) (etimer_expired)
contiki-redbee-econotag.a(ctimer.o)
                              contiki-redbee-econotag.a(rpl-dag.o) (ctimer_stop)
contiki-redbee-econotag.a(stimer.o)
                              contiki-redbee-econotag.a(rpl-icmp6.o) (stimer_set)
contiki-redbee-econotag.a(random.o)
                              contiki-redbee-econotag.a(framer-802154.o) (random_rand)
contiki-redbee-econotag.a(uip-debug.o)
                              unicast-receiver.co (uip_debug_ipaddr_print)
contiki-redbee-econotag.a(packetbuf.o)
                              contiki-redbee-econotag.a(framer-802154.o) (packetbuf_hdrreduce)
contiki-redbee-econotag.a(queuebuf.o)
                              obj_redbee-econotag/contiki-mc1322x-main.o (queuebuf_init)
contiki-redbee-econotag.a(uip6.o)
                              contiki-redbee-econotag.a(rpl-icmp6.o) (uip_ext_len)
contiki-redbee-econotag.a(tcpip.o)
                              contiki-redbee-econotag.a(uip6.o) (tcpip_uipcall)
contiki-redbee-econotag.a(simple-udp.o)
                              unicast-receiver.co (simple_udp_register)
contiki-redbee-econotag.a(uip-icmp6.o)
                              contiki-redbee-econotag.a(rpl-icmp6.o) (uip_icmp6_send)
contiki-redbee-econotag.a(uip-nd6.o)
                              contiki-redbee-econotag.a(uip6.o) (uip_nd6_na_input)
contiki-redbee-econotag.a(sicslowpan.o)
                              obj_redbee-econotag/contiki-mc1322x-main.o (sicslowpan_driver)
contiki-redbee-econotag.a(neighbor-info.o)
                              contiki-redbee-econotag.a(sicslowpan.o) (neighbor_info_packet_received)
contiki-redbee-econotag.a(uip-ds6.o)
                              contiki-redbee-econotag.a(rpl-dag.o) (uip_ds6_defrt_rm)
contiki-redbee-econotag.a(servreg-hack.o)
                              unicast-receiver.co (servreg_hack_init)
contiki-redbee-econotag.a(clock.o)
                              obj_redbee-econotag/contiki-mc1322x-main.o (clock_init)
contiki-redbee-econotag.a(button-sensor.o)
                              obj_redbee-econotag/contiki-mc1322x-main.o (button_sensor)
contiki-redbee-econotag.a(sensors.o)
                              contiki-redbee-econotag.a(button-sensor.o) (sensors_changed)
contiki-redbee-econotag.a(watchdog.o)
                              contiki-redbee-econotag.a(sicslowpan.o) (watchdog_periodic)
contiki-redbee-econotag.a(contiki-crm.o)
                              obj_redbee-econotag/contiki-mc1322x-main.o (cal_ring_osc)
contiki-redbee-econotag.a(contiki-maca.o)
                              contiki-redbee-econotag.a(nullrdc.o) (contiki_maca_driver)
contiki-redbee-econotag.a(contiki-misc.o)
                              contiki-redbee-econotag.a(random.o) (srand)
contiki-redbee-econotag.a(leds.o)
                              obj_redbee-econotag/contiki-mc1322x-main.o (leds_init)
contiki-redbee-econotag.a(contiki-uart.o)
                              obj_redbee-econotag/contiki-mc1322x-main.o (uart1_input_handler)
contiki-redbee-econotag.a(dbg-printf.o)
                              unicast-receiver.co (printf)
contiki-redbee-econotag.a(strformat.o)
                              contiki-redbee-econotag.a(dbg-printf.o) (format_str_v)
contiki-redbee-econotag.a(maca.o)
                              contiki-redbee-econotag.a(contiki-maca.o) (free_packet)
contiki-redbee-econotag.a(nvm.o)
                              obj_redbee-econotag/contiki-mc1322x-main.o (nvm_detect)
contiki-redbee-econotag.a(uart1.o)
                              obj_redbee-econotag/contiki-mc1322x-main.o (uart1_getc)
contiki-redbee-econotag.a(default_lowleve)
                              obj_redbee-econotag/contiki-mc1322x-main.o (default_vreg_init)
contiki-redbee-econotag.a(isr.o)
                              obj_redbee-econotag/start.o (irq)
contiki-redbee-econotag.a(frame802154.o)
                              contiki-redbee-econotag.a(framer-802154.o) (frame802154_parse)
contiki-redbee-econotag.a(rpl.o)
                              contiki-redbee-econotag.a(tcpip.o) (rpl_init)
contiki-redbee-econotag.a(timer.o)
                              contiki-redbee-econotag.a(etimer.o) (timer_reset)
contiki-redbee-econotag.a(uip-udp-packet.)
                              contiki-redbee-econotag.a(servreg-hack.o) (uip_udp_packet_send)
contiki-redbee-econotag.a(neighbor-attr.o)
                              contiki-redbee-econotag.a(neighbor-info.o) (neighbor_attr_get_data)
contiki-redbee-econotag.a(debug-uart.o)
                              contiki-redbee-econotag.a(dbg-printf.o) (dbg_send_bytes)
contiki-redbee-econotag.a(leds-arch.o)
                              contiki-redbee-econotag.a(leds.o) (leds_arch_init)
contiki-redbee-econotag.a(uart2.o)
                              contiki-redbee-econotag.a(default_lowleve) (u2_tx_head)
/usr/local/cs97/CodeSourcery/Sourcery_G++_Lite/bin/../lib/gcc/arm-none-eabi/4.3.2/libgcc.a(_udivsi3.o)
                              contiki-redbee-econotag.a(rpl-dag.o) (__aeabi_uidiv)
/usr/local/cs97/CodeSourcery/Sourcery_G++_Lite/bin/../lib/gcc/arm-none-eabi/4.3.2/libgcc.a(_divsi3.o)
                              obj_redbee-econotag/contiki-mc1322x-main.o (__aeabi_idiv)
/usr/local/cs97/CodeSourcery/Sourcery_G++_Lite/bin/../lib/gcc/arm-none-eabi/4.3.2/libgcc.a(_dvmd_tls.o)
                              /usr/local/cs97/CodeSourcery/Sourcery_G++_Lite/bin/../lib/gcc/arm-none-eabi/4.3.2/libgcc.a(_udivsi3.o) (__aeabi_idiv0)
/usr/local/cs97/CodeSourcery/Sourcery_G++_Lite/bin/../lib/gcc/arm-none-eabi/4.3.2/libgcc.a(_aeabi_uldivmod.o)
                              contiki-redbee-econotag.a(strformat.o) (__aeabi_uldivmod)
/usr/local/cs97/CodeSourcery/Sourcery_G++_Lite/bin/../lib/gcc/arm-none-eabi/4.3.2/libgcc.a(bpabi.o)
                              /usr/local/cs97/CodeSourcery/Sourcery_G++_Lite/bin/../lib/gcc/arm-none-eabi/4.3.2/libgcc.a(_aeabi_uldivmod.o) (__gnu_uldivmod_helper)
/usr/local/cs97/CodeSourcery/Sourcery_G++_Lite/bin/../lib/gcc/arm-none-eabi/4.3.2/libgcc.a(_divdi3.o)
                              /usr/local/cs97/CodeSourcery/Sourcery_G++_Lite/bin/../lib/gcc/arm-none-eabi/4.3.2/libgcc.a(bpabi.o) (__divdi3)
/usr/local/cs97/CodeSourcery/Sourcery_G++_Lite/bin/../lib/gcc/arm-none-eabi/4.3.2/libgcc.a(_udivdi3.o)
                              /usr/local/cs97/CodeSourcery/Sourcery_G++_Lite/bin/../lib/gcc/arm-none-eabi/4.3.2/libgcc.a(bpabi.o) (__udivdi3)
/usr/local/cs97/CodeSourcery/Sourcery_G++_Lite/bin/../lib/gcc/arm-none-eabi/4.3.2/libgcc.a(_clz.o)
                              /usr/local/cs97/CodeSourcery/Sourcery_G++_Lite/bin/../lib/gcc/arm-none-eabi/4.3.2/libgcc.a(_divdi3.o) (__clz_tab)
/usr/local/cs97/CodeSourcery/Sourcery_G++_Lite/bin/../lib/gcc/arm-none-eabi/4.3.2/../../../../arm-none-eabi/lib/libc.a(lib_a-memcmp.o)
                              obj_redbee-econotag/contiki-mc1322x-main.o (memcmp)
/usr/local/cs97/CodeSourcery/Sourcery_G++_Lite/bin/../lib/gcc/arm-none-eabi/4.3.2/../../../../arm-none-eabi/lib/libc.a(lib_a-memcpy.o)
                              obj_redbee-econotag/contiki-mc1322x-main.o (memcpy)
/usr/local/cs97/CodeSourcery/Sourcery_G++_Lite/bin/../lib/gcc/arm-none-eabi/4.3.2/../../../../arm-none-eabi/lib/libc.a(lib_a-memmove.o)
                              contiki-redbee-econotag.a(uip-icmp6.o) (memmove)
/usr/local/cs97/CodeSourcery/Sourcery_G++_Lite/bin/../lib/gcc/arm-none-eabi/4.3.2/../../../../arm-none-eabi/lib/libc.a(lib_a-memset.o)
                              contiki-redbee-econotag.a(framer-802154.o) (memset)
/usr/local/cs97/CodeSourcery/Sourcery_G++_Lite/bin/../lib/gcc/arm-none-eabi/4.3.2/../../../../arm-none-eabi/lib/libc.a(lib_a-strlen.o)
                              contiki-redbee-econotag.a(sensors.o) (strlen)
/usr/local/cs97/CodeSourcery/Sourcery_G++_Lite/bin/../lib/gcc/arm-none-eabi/4.3.2/../../../../arm-none-eabi/lib/libc.a(lib_a-strncmp.o)
                              contiki-redbee-econotag.a(sensors.o) (strncmp)

Memory Configuration

Name             Origin             Length             Attributes
ram              0x00400000         0x00018000         xrw
*default*        0x00000000         0xffffffff

Linker script and memory map

LOAD unicast-receiver.co
LOAD obj_redbee-econotag/contiki-mc1322x-main.o
LOAD obj_redbee-econotag/start.o
LOAD obj_redbee-econotag/symbols.o
LOAD contiki-redbee-econotag.a
LOAD contiki-redbee-econotag.a
START GROUP
LOAD /usr/local/cs97/CodeSourcery/Sourcery_G++_Lite/bin/../lib/gcc/arm-none-eabi/4.3.2/libgcc.a
LOAD /usr/local/cs97/CodeSourcery/Sourcery_G++_Lite/bin/../lib/gcc/arm-none-eabi/4.3.2/../../../../arm-none-eabi/lib/libc.a
END GROUP
                0x00000400                SYS_STACK_SIZE = 0x400
                0x00000100                IRQ_STACK_SIZE = 0x100
                0x00000100                FIQ_STACK_SIZE = 0x100
                0x00000100                SVC_STACK_SIZE = 0x100
                0x00000010                ABT_STACK_SIZE = 0x10
                0x00000010                UND_STACK_SIZE = 0x10
                0x00001000                HEAP_SIZE = 0x1000
                0x00400000                PROVIDE (__executable_start, 0x400000)
                0x00400000                . = 0x400000

.text           0x00400000     0xcab8
 *(.start)
 .start         0x00400000      0x8b4 obj_redbee-econotag/start.o
                0x00400890                _bss_start
                0x00400894                _bss_end
                0x00400000                _start
 *(.irq)
 .irq           0x004008b4      0x1e8 contiki-redbee-econotag.a(isr.o)
                0x004008b4                irq
 *(.text .stub .text.* .gnu.linkonce.t.*)
 .text          0x00400a9c      0x138 unicast-receiver.co
 .text          0x00400bd4      0x464 obj_redbee-econotag/contiki-mc1322x-main.o
                0x00400c38                .real_start_ofuip_log
                0x00400c4c                set_rimeaddr
                0x00400da0                .real_start_ofmain
                0x00400d0c                init_lowlevel
                0x00400c0c                .real_start_ofoui_to_eui64
                0x00400c04                oui_to_eui64
                0x00400bdc                .real_start_ofiab_to_eui64
                0x00400d98                main
                0x00400c30                uip_log
                0x00400bd4                iab_to_eui64
                0x00400c54                .real_start_ofset_rimeaddr
                0x00400d14                .real_start_ofinit_lowlevel
 .text          0x00401038        0x0 obj_redbee-econotag/start.o
 .text          0x00401038        0x0 obj_redbee-econotag/symbols.o
 .text          0x00401038       0x64 contiki-redbee-econotag.a(rimeaddr.o)
                0x00401080                rimeaddr_set_node_addr
                0x0040105c                .real_start_ofrimeaddr_cmp
                0x00401088                .real_start_ofrimeaddr_set_node_addr
                0x00401038                rimeaddr_copy
                0x00401040                .real_start_ofrimeaddr_copy
                0x00401054                rimeaddr_cmp
 .text          0x0040109c       0x58 contiki-redbee-econotag.a(nullmac.o)
 .text          0x004010f4      0x188 contiki-redbee-econotag.a(nullrdc.o)
 .text          0x0040127c       0x24 contiki-redbee-econotag.a(mac.o)
                0x00401284                .real_start_ofmac_call_sent_callback
                0x0040127c                mac_call_sent_callback
 .text          0x004012a0      0x1dc contiki-redbee-econotag.a(framer-802154.o)
 .text          0x0040147c      0x8e8 contiki-redbee-econotag.a(rpl-dag.o)
                0x004018a8                .real_start_ofrpl_process_parent_event
                0x004015d8                rpl_remove_parent
                0x00401c74                .real_start_ofrpl_free_dag
                0x00401574                .real_start_ofrpl_repair_dag
                0x0040154c                rpl_find_of
                0x00401c24                rpl_recalculate_ranks
                0x0040173c                .real_start_ofrpl_alloc_dag
                0x004016e4                rpl_set_prefix
                0x004014fc                .real_start_ofrpl_get_dag
                0x0040156c                rpl_repair_dag
                0x00401c6c                rpl_free_dag
                0x00401734                rpl_alloc_dag
                0x004015a8                .real_start_ofrpl_find_parent
                0x00401cb0                rpl_set_root
                0x00401798                .real_start_ofrpl_set_default_route
                0x004018a0                rpl_process_parent_event
                0x004017e0                .real_start_ofrpl_select_parent
                0x00401c2c                .real_start_ofrpl_recalculate_ranks
                0x00401688                rpl_add_parent
                0x00401cb8                .real_start_ofrpl_set_root
                0x00401924                rpl_process_dio
                0x004014f4                rpl_get_dag
                0x004016ec                .real_start_ofrpl_set_prefix
                0x00401660                rpl_local_repair
                0x004015e0                .real_start_ofrpl_remove_parent
                0x004015a0                rpl_find_parent
                0x00401690                .real_start_ofrpl_add_parent
                0x00401554                .real_start_ofrpl_find_of
                0x004017d8                rpl_select_parent
                0x0040192c                .real_start_ofrpl_process_dio
                0x00401668                .real_start_ofrpl_local_repair
                0x00401790                rpl_set_default_route
 .text          0x00401d64      0x7cc contiki-redbee-econotag.a(rpl-icmp6.o)
                0x00401db4                dao_ack_output
                0x00402108                .real_start_ofuip_rpl_input
                0x004024dc                .real_start_ofdis_output
                0x00401f00                .real_start_ofdio_output
                0x00401ef8                dio_output
                0x00402100                uip_rpl_input
                0x00401df0                dao_output
                0x00401dbc                .real_start_ofdao_ack_output
                0x004024d4                dis_output
                0x00401df8                .real_start_ofdao_output
 .text          0x00402530      0x234 contiki-redbee-econotag.a(rpl-timers.o)
                0x00402620                .real_start_ofrpl_reset_periodic_timer
                0x00402538                .real_start_ofrpl_schedule_dao
                0x004025e4                .real_start_ofrpl_reset_dio_timer
                0x004025dc                rpl_reset_dio_timer
                0x00402618                rpl_reset_periodic_timer
                0x00402530                rpl_schedule_dao
 .text          0x00402764       0xec contiki-redbee-econotag.a(rpl-of-etx.o)
 .text          0x00402850      0x2fc contiki-redbee-econotag.a(process.o)
                0x00402a0c                .real_start_ofprocess_post_synch
                0x00402a2c                .real_start_ofprocess_start
                0x004028a4                process_post
                0x00402858                .real_start_ofprocess_alloc_event
                0x0040288c                process_nevents
                0x00402a24                process_start
                0x00402a04                process_post_synch
                0x00402a9c                .real_start_ofprocess_run
                0x00402b34                .real_start_ofprocess_exit
                0x004028f4                process_poll
                0x00402850                process_alloc_event
                0x00402b2c                process_exit
                0x00402894                .real_start_ofprocess_nevents
                0x00402920                process_is_running
                0x004028fc                .real_start_ofprocess_poll
                0x00402868                process_init
                0x004028ac                .real_start_ofprocess_post
                0x00402928                .real_start_ofprocess_is_running
                0x00402a94                process_run
                0x00402870                .real_start_ofprocess_init
 .text          0x00402b4c       0x40 contiki-redbee-econotag.a(autostart.o)
                0x00402b74                .real_start_ofautostart_start
                0x00402b54                .real_start_ofautostart_exit
                0x00402b4c                autostart_exit
                0x00402b6c                autostart_start
 .text          0x00402b8c       0xd8 contiki-redbee-econotag.a(memb.o)
                0x00402b94                .real_start_ofmemb_alloc
                0x00402c40                .real_start_ofmemb_init
                0x00402c0c                .real_start_ofmemb_inmemb
                0x00402b8c                memb_alloc
                0x00402bc4                memb_free
                0x00402c38                memb_init
                0x00402c04                memb_inmemb
                0x00402bcc                .real_start_ofmemb_free
 .text          0x00402c64      0x174 contiki-redbee-econotag.a(list.o)
                0x00402da8                .real_start_oflist_insert
                0x00402cec                .real_start_oflist_pop
                0x00402c80                list_copy
                0x00402d38                list_push
                0x00402ce4                list_pop
                0x00402d58                list_add
                0x00402d84                list_length
                0x00402c90                list_tail
                0x00402d60                .real_start_oflist_add
                0x00402c74                list_head
                0x00402da0                list_insert
                0x00402cb0                list_chop
                0x00402d08                .real_start_oflist_remove
                0x00402c88                .real_start_oflist_copy
                0x00402d8c                .real_start_oflist_length
                0x00402c6c                .real_start_oflist_init
                0x00402cb8                .real_start_oflist_chop
                0x00402dc4                list_item_next
                0x00402c98                .real_start_oflist_tail
                0x00402c64                list_init
                0x00402c7c                .real_start_oflist_head
                0x00402d40                .real_start_oflist_push
                0x00402dcc                .real_start_oflist_item_next
                0x00402d00                list_remove
 .text          0x00402dd8      0x268 contiki-redbee-econotag.a(etimer.o)
                0x00402de0                .real_start_ofetimer_expired
                0x00402e08                etimer_pending
                0x00403008                etimer_reset
                0x00402e10                .real_start_ofetimer_pending
                0x00402ed0                .real_start_ofetimer_adjust
                0x00403024                etimer_set
                0x00402ec8                etimer_adjust
                0x00403010                .real_start_ofetimer_reset
                0x00402fec                etimer_restart
                0x00402eec                .real_start_ofetimer_request_poll
                0x00402dfc                etimer_start_time
                0x0040302c                .real_start_ofetimer_set
                0x00402e20                etimer_next_expiration_time
                0x00402ee4                etimer_request_poll
                0x00402df0                .real_start_ofetimer_expiration_time
                0x00402de8                etimer_expiration_time
                0x00402e04                .real_start_ofetimer_start_time
                0x00402e84                etimer_stop
                0x00402ff4                .real_start_ofetimer_restart
                0x00402dd8                etimer_expired
                0x00402e8c                .real_start_ofetimer_stop
                0x00402e28                .real_start_ofetimer_next_expiration_time
 .text          0x00403040      0x214 contiki-redbee-econotag.a(ctimer.o)
                0x00403184                ctimer_set
                0x0040313c                ctimer_restart
                0x0040322c                .real_start_ofctimer_init
                0x004031dc                ctimer_reset
                0x00403224                ctimer_init
                0x00403144                .real_start_ofctimer_restart
                0x00403110                .real_start_ofctimer_stop
                0x0040318c                .real_start_ofctimer_set
                0x004030d4                .real_start_ofctimer_expired
                0x004030cc                ctimer_expired
                0x00403108                ctimer_stop
                0x004031e4                .real_start_ofctimer_reset
 .text          0x00403254       0xb0 contiki-redbee-econotag.a(stimer.o)
                0x004032f0                .real_start_ofstimer_set
                0x00403268                stimer_elapsed
                0x004032d8                .real_start_ofstimer_restart
                0x004032ac                .real_start_ofstimer_expired
                0x00403270                .real_start_ofstimer_elapsed
                0x00403284                stimer_remaining
                0x004032d0                stimer_restart
                0x0040328c                .real_start_ofstimer_remaining
                0x0040325c                .real_start_ofstimer_reset
                0x00403254                stimer_reset
                0x004032a4                stimer_expired
                0x004032e8                stimer_set
 .text          0x00403304       0x2c contiki-redbee-econotag.a(random.o)
                0x00403304                random_rand
                0x0040330c                .real_start_ofrandom_rand
                0x00403324                .real_start_ofrandom_init
                0x0040331c                random_init
 .text          0x00403330       0xa0 contiki-redbee-econotag.a(uip-debug.o)
                0x00403330                uip_debug_lladdr_print
                0x0040336c                .real_start_ofuip_debug_ipaddr_print
                0x00403338                .real_start_ofuip_debug_lladdr_print
                0x00403364                uip_debug_ipaddr_print
 .text          0x004033d0      0x394 contiki-redbee-econotag.a(packetbuf.o)
                0x004035a0                packetbuf_copyto
                0x0040347c                packetbuf_is_reference
                0x00403570                packetbuf_attr_copyto
                0x0040362c                .real_start_ofpacketbuf_compact
                0x004033d8                .real_start_ofpacketbuf_clear_hdr
                0x0040372c                packetbuf_copyfrom
                0x004033e4                packetbuf_hdr_remove
                0x00403448                .real_start_ofpacketbuf_dataptr
                0x00403484                .real_start_ofpacketbuf_is_reference
                0x0040342c                packetbuf_set_datalen
                0x00403510                .real_start_ofpacketbuf_hdralloc
                0x004034b4                packetbuf_datalen
                0x0040353c                packetbuf_attr_copyfrom
                0x004034a0                packetbuf_reference_ptr
                0x00403710                .real_start_ofpacketbuf_reference
                0x00403544                .real_start_ofpacketbuf_attr_copyfrom
                0x004033d0                packetbuf_clear_hdr
                0x004035f4                packetbuf_copyto_hdr
                0x004034bc                .real_start_ofpacketbuf_datalen
                0x004035a8                .real_start_ofpacketbuf_copyto
                0x004034e4                packetbuf_totlen
                0x004034ec                .real_start_ofpacketbuf_totlen
                0x00403404                .real_start_ofpacketbuf_hdrreduce
                0x00403708                packetbuf_reference
                0x00403508                packetbuf_hdralloc
                0x004036e0                .real_start_ofpacketbuf_clear
                0x004034c8                packetbuf_hdrlen
                0x00403460                packetbuf_hdrptr
                0x004033ec                .real_start_ofpacketbuf_hdr_remove
                0x004035fc                .real_start_ofpacketbuf_copyto_hdr
                0x00403468                .real_start_ofpacketbuf_hdrptr
                0x0040368c                .real_start_ofpacketbuf_attr_clear
                0x00403578                .real_start_ofpacketbuf_attr_copyto
                0x00403434                .real_start_ofpacketbuf_set_datalen
                0x004034a8                .real_start_ofpacketbuf_reference_ptr
                0x004033fc                packetbuf_hdrreduce
                0x00403440                packetbuf_dataptr
                0x00403624                packetbuf_compact
                0x004036d8                packetbuf_clear
                0x00403734                .real_start_ofpacketbuf_copyfrom
                0x00403684                packetbuf_attr_clear
                0x004034d0                .real_start_ofpacketbuf_hdrlen
 .text          0x00403764      0x1cc contiki-redbee-econotag.a(queuebuf.o)
                0x00403770                queuebuf_addr
                0x004037a4                queuebuf_dataptr
                0x00403764                queuebuf_datalen
                0x004037e4                .real_start_ofqueuebuf_to_packetbuf
                0x00403848                queuebuf_free
                0x0040390c                queuebuf_init
                0x00403798                queuebuf_debug_print
                0x00403784                queuebuf_attr
                0x004038a0                queuebuf_new_from_packetbuf
                0x00403884                queuebuf_update_attr_from_packetbuf
                0x0040376c                .real_start_ofqueuebuf_datalen
                0x004037a0                .real_start_ofqueuebuf_debug_print
                0x0040378c                .real_start_ofqueuebuf_attr
                0x004037dc                queuebuf_to_packetbuf
                0x00403850                .real_start_ofqueuebuf_free
                0x00403914                .real_start_ofqueuebuf_init
                0x004037ac                .real_start_ofqueuebuf_dataptr
                0x00403778                .real_start_ofqueuebuf_addr
                0x0040388c                .real_start_ofqueuebuf_update_attr_from_packetbuf
                0x004038a8                .real_start_ofqueuebuf_new_from_packetbuf
 .text          0x00403930     0x1718 contiki-redbee-econotag.a(uip6.o)
                0x004039ec                uip_unlisten
                0x00403930                uip_add32
                0x00403938                .real_start_ofuip_add32
                0x00403c74                .real_start_ofuip_icmp6chksum
                0x00403db0                uip_process
                0x00403ac0                .real_start_ofuip_connect
                0x00404f04                uip_udp_new
                0x00403ca4                uip_htonl
                0x00403a30                uip_listen
                0x00403cd4                .real_start_ofuip_send
                0x00404fd8                .real_start_ofuip_init
                0x00403c6c                uip_icmp6chksum
                0x004039f4                .real_start_ofuip_unlisten
                0x00403aa0                uip_htons
                0x00403c54                uip_tcpchksum
                0x00403ab8                uip_connect
                0x00403cac                .real_start_ofuip_htonl
                0x00403c5c                .real_start_ofuip_tcpchksum
                0x00403c44                .real_start_ofuip_udpchksum
                0x00403db8                .real_start_ofuip_process
                0x00403aa8                .real_start_ofuip_htons
                0x00403c84                uip_chksum
                0x00403a38                .real_start_ofuip_listen
                0x00404f0c                .real_start_ofuip_udp_new
                0x00403c8c                .real_start_ofuip_chksum
                0x00404fd0                uip_init
                0x00403c3c                uip_udpchksum
                0x00403ccc                uip_send
 .text          0x00405048      0x644 contiki-redbee-econotag.a(tcpip.o)
                0x00405080                tcp_attach
                0x00405604                .real_start_oftcp_listen
                0x004055b8                udp_broadcast_new
                0x00405098                udp_attach
                0x004051c8                .real_start_oftcpip_input
                0x0040512c                tcpip_uipcall
                0x00405218                .real_start_oftcpip_poll_udp
                0x00405048                tcpip_output
                0x00405074                .real_start_oftcpip_set_outputfunc
                0x00405050                .real_start_oftcpip_output
                0x004055fc                tcp_listen
                0x00405598                .real_start_ofudp_new
                0x004050b8                .real_start_oftcp_unlisten
                0x004051f0                tcpip_poll_tcp
                0x004051f8                .real_start_oftcpip_poll_tcp
                0x00405658                tcp_connect
                0x00405230                tcpip_ipv6_output
                0x004050b0                tcp_unlisten
                0x00405660                .real_start_oftcp_connect
                0x00405134                .real_start_oftcpip_uipcall
                0x004051c0                tcpip_input
                0x00405088                .real_start_oftcp_attach
                0x0040506c                tcpip_set_outputfunc
                0x00405238                .real_start_oftcpip_ipv6_output
                0x00405210                tcpip_poll_udp
                0x00405590                udp_new
                0x004050a0                .real_start_ofudp_attach
                0x004055c0                .real_start_ofudp_broadcast_new
 .text          0x0040568c      0x1bc contiki-redbee-econotag.a(simple-udp.o)
                0x0040580c                simple_udp_send
                0x0040574c                .real_start_ofsimple_udp_register
                0x00405744                simple_udp_register
                0x004057d8                .real_start_ofsimple_udp_sendto
                0x00405814                .real_start_ofsimple_udp_send
                0x004057d0                simple_udp_sendto
 .text          0x00405848      0x294 contiki-redbee-econotag.a(uip-icmp6.o)
                0x00405848                uip_icmp6_send
                0x004058e0                .real_start_ofuip_icmp6_echo_request_input
                0x00405850                .real_start_ofuip_icmp6_send
                0x0040599c                .real_start_ofuip_icmp6_error_output
                0x00405994                uip_icmp6_error_output
                0x004058d8                uip_icmp6_echo_request_input
 .text          0x00405adc      0x610 contiki-redbee-econotag.a(uip-nd6.o)
                0x00405e0c                .real_start_ofuip_nd6_ns_input
                0x00405d04                uip_nd6_ns_output
                0x00405d0c                .real_start_ofuip_nd6_ns_output
                0x00405adc                uip_nd6_na_input
                0x00405e04                uip_nd6_ns_input
                0x00405ae4                .real_start_ofuip_nd6_na_input
 .text          0x004060ec      0xe38 contiki-redbee-econotag.a(sicslowpan.o)
                0x004067ec                sicslowpan_init
                0x004067f4                .real_start_ofsicslowpan_init
 .text          0x00406f24      0x164 contiki-redbee-econotag.a(neighbor-info.o)
                0x00406f64                .real_start_ofneighbor_info_subscribe
                0x00406fc4                neighbor_info_packet_sent
                0x00406f5c                neighbor_info_subscribe
                0x00406f3c                .real_start_ofneighbor_info_get_metric
                0x00406fa0                .real_start_ofneighbor_info_packet_received
                0x00406fcc                .real_start_ofneighbor_info_packet_sent
                0x00406f98                neighbor_info_packet_received
                0x00406f34                neighbor_info_get_metric
 .text          0x00407088      0xd14 contiki-redbee-econotag.a(uip-ds6.o)
                0x004076ec                .real_start_ofuip_ds6_prefix_lookup
                0x0040748c                uip_ds6_route_add
                0x00407658                uip_ds6_maddr_add
                0x00407434                .real_start_ofuip_ds6_list_loop
                0x00407638                .real_start_ofuip_ds6_dad_failed
                0x00407150                uip_ds6_maddr_rm
                0x004077cc                uip_ds6_nbr_lookup
                0x00407814                .real_start_ofuip_ds6_defrt_choose
                0x004077d4                .real_start_ofuip_ds6_nbr_lookup
                0x00407494                .real_start_ofuip_ds6_route_add
                0x00407280                uip_ds6_compute_reachable_time
                0x004079c0                uip_ds6_nbr_rm
                0x004071e8                .real_start_ofuip_ds6_select_src
                0x0040732c                uip_ds6_route_rm_by_nexthop
                0x004074f8                uip_ds6_aaddr_lookup
                0x00407168                uip_ds6_aaddr_rm
                0x00407288                .real_start_ofuip_ds6_compute_reachable_time
                0x00407188                .real_start_ofuip_ds6_route_rm
                0x004072b8                uip_ds6_dad
                0x00407594                .real_start_ofuip_ds6_maddr_lookup
                0x00407958                .real_start_ofuip_ds6_defrt_add
                0x00407c94                .real_start_ofuip_ds6_init
                0x00407660                .real_start_ofuip_ds6_maddr_add
                0x00407308                uip_ds6_set_addr_iid
                0x004072c0                .real_start_ofuip_ds6_dad
                0x004070a0                uip_ds6_prefix_rm
                0x00407158                .real_start_ofuip_ds6_maddr_rm
                0x00407198                .real_start_ofget_match_length
                0x00407c8c                uip_ds6_init
                0x004079dc                uip_ds6_nbr_add
                0x00407180                uip_ds6_route_rm
                0x00407088                uip_ds6_defrt_rm
                0x004076b4                .real_start_ofuip_ds6_addr_lookup
                0x004075d4                .real_start_ofuip_ds6_addr_rm
                0x00407190                get_match_length
                0x00407538                uip_ds6_aaddr_add
                0x00407170                .real_start_ofuip_ds6_aaddr_rm
                0x00407874                uip_ds6_addr_add
                0x004070b8                uip_ds6_get_link_local
                0x0040710c                .real_start_ofuip_ds6_get_global
                0x00407798                .real_start_ofuip_ds6_defrt_lookup
                0x00407950                uip_ds6_defrt_add
                0x004070a8                .real_start_ofuip_ds6_prefix_rm
                0x00407720                uip_ds6_prefix_add
                0x0040742c                uip_ds6_list_loop
                0x00407334                .real_start_ofuip_ds6_route_rm_by_nexthop
                0x004075cc                uip_ds6_addr_rm
                0x0040758c                uip_ds6_maddr_lookup
                0x00407790                uip_ds6_defrt_lookup
                0x004079e4                .real_start_ofuip_ds6_nbr_add
                0x00407500                .real_start_ofuip_ds6_aaddr_lookup
                0x0040737c                uip_ds6_route_lookup
                0x00407630                uip_ds6_dad_failed
                0x004076e4                uip_ds6_prefix_lookup
                0x004070c0                .real_start_ofuip_ds6_get_link_local
                0x0040780c                uip_ds6_defrt_choose
                0x004073e0                uip_ds6_is_addr_onlink
                0x00407adc                uip_ds6_periodic
                0x004079c8                .real_start_ofuip_ds6_nbr_rm
                0x00407540                .real_start_ofuip_ds6_aaddr_add
                0x00407310                .real_start_ofuip_ds6_set_addr_iid
                0x00407384                .real_start_ofuip_ds6_route_lookup
                0x004073e8                .real_start_ofuip_ds6_is_addr_onlink
                0x004071e0                uip_ds6_select_src
                0x00407ae4                .real_start_ofuip_ds6_periodic
                0x004076ac                uip_ds6_addr_lookup
                0x00407090                .real_start_ofuip_ds6_defrt_rm
                0x0040787c                .real_start_ofuip_ds6_addr_add
                0x00407728                .real_start_ofuip_ds6_prefix_add
                0x00407104                uip_ds6_get_global
 .text          0x00407d9c      0x3e8 contiki-redbee-econotag.a(servreg-hack.o)
                0x004080b8                .real_start_ofservreg_hack_lookup
                0x004080b0                servreg_hack_lookup
                0x00407e3c                .real_start_ofservreg_hack_list_head
                0x00407da8                servreg_hack_item_address
                0x004080e4                servreg_hack_register
                0x004080ec                .real_start_ofservreg_hack_register
                0x00407e34                servreg_hack_list_head
                0x00407db0                .real_start_ofservreg_hack_item_address
                0x00408070                .real_start_ofservreg_hack_init
                0x00407d9c                servreg_hack_item_id
                0x00408068                servreg_hack_init
                0x00407da4                .real_start_ofservreg_hack_item_id
 .text          0x00408184      0x110 contiki-redbee-econotag.a(clock.o)
                0x00408204                .real_start_ofclock_delay
                0x00408220                .real_start_oftmr0_isr
                0x00408184                clock_init
                0x0040818c                .real_start_ofclock_init
                0x004081e8                clock_seconds
                0x004081dc                .real_start_ofclock_time
                0x004081fc                clock_delay
                0x00408218                tmr0_isr
                0x004081d4                clock_time
                0x004081f0                .real_start_ofclock_seconds
 .text          0x00408294       0xd0 contiki-redbee-econotag.a(button-sensor.o)
                0x00408324                kbi4_isr
                0x0040832c                .real_start_ofkbi4_isr
 .text          0x00408364      0x19c contiki-redbee-econotag.a(sensors.o)
                0x00408480                sensors_find
                0x0040838c                sensors_first
                0x00408488                .real_start_ofsensors_find
                0x004084d4                .real_start_ofsensors_changed
                0x00408394                .real_start_ofsensors_first
                0x004083a0                sensors_next
                0x004084cc                sensors_changed
                0x004083a8                .real_start_ofsensors_next
 .text          0x00408500       0x3c contiki-redbee-econotag.a(watchdog.o)
                0x00408514                .real_start_ofwatchdog_start
                0x00408508                .real_start_ofwatchdog_init
                0x00408518                watchdog_periodic
                0x0040850c                watchdog_start
                0x00408524                watchdog_stop
                0x00408538                .real_start_ofwatchdog_reboot
                0x00408520                .real_start_ofwatchdog_periodic
                0x00408530                watchdog_reboot
                0x0040852c                .real_start_ofwatchdog_stop
                0x00408500                watchdog_init
 .text          0x0040853c      0x164 contiki-redbee-econotag.a(contiki-crm.o)
                0x0040857c                cal_ring_osc
                0x0040863c                .real_start_ofenable_32khz_xtal
                0x0040853c                sleep
                0x00408584                .real_start_ofcal_ring_osc
                0x00408634                enable_32khz_xtal
                0x00408544                .real_start_ofsleep
 .text          0x004086a0      0x278 contiki-redbee-econotag.a(contiki-maca.o)
                0x004086c4                .real_start_ofcontiki_maca_channel_clear
                0x00408838                .real_start_ofcontiki_maca_read
                0x0040872c                .real_start_ofmaca_tx_callback
                0x00408724                maca_tx_callback
                0x00408830                contiki_maca_read
                0x004086f4                .real_start_ofcontiki_maca_on_request
                0x0040873c                maca_rx_callback
                0x004086c8                contiki_maca_receiving_packet
                0x004086ec                contiki_maca_on_request
                0x00408794                contiki_maca_transmit
                0x004086b8                .real_start_ofcontiki_maca_init
                0x0040879c                .real_start_ofcontiki_maca_transmit
                0x004087fc                .real_start_ofcontiki_maca_send
                0x00408708                contiki_maca_off_request
                0x00408760                .real_start_ofcontiki_maca_prepare
                0x00408744                .real_start_ofmaca_rx_callback
                0x004086b0                contiki_maca_init
                0x004086dc                .real_start_ofcontiki_maca_pending_packet
                0x004086bc                contiki_maca_channel_clear
                0x004087f4                contiki_maca_send
                0x004086d0                .real_start_ofcontiki_maca_receiving_packet
                0x004086d4                contiki_maca_pending_packet
                0x00408758                contiki_maca_prepare
                0x00408710                .real_start_ofcontiki_maca_off_request
 .text          0x00408918       0x74 contiki-redbee-econotag.a(contiki-misc.o)
                0x00408920                .real_start_ofraise
                0x0040894c                _sbrk
                0x00408938                rand
                0x00408924                srand
                0x0040892c                .real_start_ofsrand
                0x00408954                .real_start_of_sbrk
                0x00408940                .real_start_ofrand
                0x00408918                raise
 .text          0x0040898c      0x100 contiki-redbee-econotag.a(leds.o)
                0x004089c4                leds_toggle
                0x00408a3c                .real_start_ofleds_blink
                0x004089fc                leds_on
                0x004089d8                leds_off
                0x00408a20                leds_get
                0x004089a4                leds_invert
                0x004089ac                .real_start_ofleds_invert
                0x004089e0                .real_start_ofleds_off
                0x00408a34                leds_blink
                0x00408a28                .real_start_ofleds_get
                0x004089cc                .real_start_ofleds_toggle
                0x00408a74                .real_start_ofleds_init
                0x00408a04                .real_start_ofleds_on
                0x00408a6c                leds_init
 .text          0x00408a8c       0x14 contiki-redbee-econotag.a(contiki-uart.o)
                0x00408a94                .real_start_ofuart1_set_input
                0x00408a8c                uart1_set_input
 .text          0x00408aa0       0x44 contiki-redbee-econotag.a(dbg-printf.o)
                0x00408aa0                printf
                0x00408aa8                .real_start_ofprintf
 .text          0x00408ae4      0x7f8 contiki-redbee-econotag.a(strformat.o)
                0x004092b4                format_str
                0x004092bc                .real_start_offormat_str
                0x00408b90                format_str_v
                0x00408b98                .real_start_offormat_str_v
 .text          0x004092dc      0xfa8 contiki-redbee-econotag.a(maca.o)
                0x004092e4                .real_start_ofbad_packet_bounds
                0x004098f4                .real_start_ofmaca_off
                0x004095cc                .real_start_oftx_packet
                0x0040978c                .real_start_ofinsert_at_rx_head
                0x00409a14                set_channel
                0x00409c3c                .real_start_ofradio_init
                0x00409504                post_tx
                0x0040999c                set_power
                0x004092dc                bad_packet_bounds
                0x00409c34                radio_init
                0x004096c8                free_tx_head
                0x00409974                set_demodulator_type
                0x00409724                .real_start_ofadd_to_rx
                0x004096d0                .real_start_offree_tx_head
                0x004094b8                .real_start_ofrx_packet
                0x0040a1dc                Print_Packets
                0x00409920                .real_start_ofmaca_on
                0x004098b0                flyback_init
                0x004097f4                .real_start_ofinit_phy
                0x00409350                free_packet
                0x0040997c                .real_start_ofset_demodulator_type
                0x00409b70                .real_start_ofinit_from_flash
                0x004092e8                count_packets
                0x0040950c                .real_start_ofpost_tx
                0x00409958                .real_start_ofget_ctov
                0x00409658                .real_start_offree_all_packets
                0x00409f6c                decode_status
                0x004093b4                get_free_packet
                0x0040971c                add_to_rx
                0x00409408                post_receive
                0x004098ec                maca_off
                0x00409fa4                check_maca
                0x004098b8                .real_start_offlyback_init
                0x00409784                insert_at_rx_head
                0x00409358                .real_start_offree_packet
                0x00409b68                init_from_flash
                0x00409ae0                exec_init_entry
                0x00409a1c                .real_start_ofset_channel
                0x00409650                free_all_packets
                0x004092f0                .real_start_ofcount_packets
                0x00409e2c                .real_start_ofmaca_init
                0x00409ae8                .real_start_ofexec_init_entry
                0x00409918                maca_on
                0x004097ec                init_phy
                0x00409e24                maca_init
                0x00409e8c                ResumeMACASync
                0x00409950                get_ctov
                0x00409854                reset_maca
                0x004095c4                tx_packet
                0x004099a4                .real_start_ofset_power
                0x0040985c                .real_start_ofreset_maca
                0x0040a05c                .real_start_ofmaca_isr
                0x0040a054                maca_isr
                0x00409410                .real_start_ofpost_receive
                0x004094b0                rx_packet
                0x00409308                bound_check
                0x00409310                .real_start_ofbound_check
                0x00409fac                .real_start_ofcheck_maca
                0x0040a1e4                .real_start_ofPrint_Packets
                0x00409e94                .real_start_ofResumeMACASync
                0x00409f74                .real_start_ofdecode_status
                0x004093bc                .real_start_ofget_free_packet
 .text          0x0040a284        0x0 contiki-redbee-econotag.a(nvm.o)
 .text          0x0040a284      0x1a4 contiki-redbee-econotag.a(uart1.o)
                0x0040a33c                .real_start_ofuart1_putc
                0x0040a3d0                uart1_getc
                0x0040a3d8                .real_start_ofuart1_getc
                0x0040a284                uart1_isr
                0x0040a28c                .real_start_ofuart1_isr
                0x0040a334                uart1_putc
 .text          0x0040a428      0x1f8 contiki-redbee-econotag.a(default_lowleve)
                0x0040a474                uart1_init
                0x0040a430                .real_start_ofdefault_vreg_init
                0x0040a47c                .real_start_ofuart1_init
                0x0040a428                default_vreg_init
                0x0040a550                uart2_init
                0x0040a558                .real_start_ofuart2_init
 .text          0x0040a620       0x10 contiki-redbee-econotag.a(isr.o)
                0x0040a620                irq_register_timer_handler
 .text          0x0040a630      0x2fc contiki-redbee-econotag.a(frame802154.o)
                0x0040a7e8                frame802154_create
                0x0040a650                .real_start_offrame802154_parse
                0x0040a648                frame802154_parse
                0x0040a8f4                frame802154_hdrlen
                0x0040a8fc                .real_start_offrame802154_hdrlen
                0x0040a7f0                .real_start_offrame802154_create
 .text          0x0040a92c      0x1ec contiki-redbee-econotag.a(rpl.o)
                0x0040aae0                .real_start_ofrpl_purge_routes
                0x0040a9fc                .real_start_ofrpl_ipv6_neighbor_callback
                0x0040aaa8                rpl_remove_routes
                0x0040a9f4                rpl_ipv6_neighbor_callback
                0x0040aa48                rpl_add_route
                0x0040a92c                rpl_init
                0x0040a934                .real_start_ofrpl_init
                0x0040aa50                .real_start_ofrpl_add_route
                0x0040aab0                .real_start_ofrpl_remove_routes
                0x0040aad8                rpl_purge_routes
 .text          0x0040ab18       0x8c contiki-redbee-econotag.a(timer.o)
                0x0040ab78                .real_start_oftimer_restart
                0x0040ab4c                timer_expired
                0x0040ab2c                timer_remaining
                0x0040ab54                .real_start_oftimer_expired
                0x0040ab90                .real_start_oftimer_set
                0x0040ab20                .real_start_oftimer_reset
                0x0040ab88                timer_set
                0x0040ab70                timer_restart
                0x0040ab18                timer_reset
                0x0040ab34                .real_start_oftimer_remaining
 .text          0x0040aba4       0xb0 contiki-redbee-econotag.a(uip-udp-packet.)
                0x0040abf8                .real_start_ofuip_udp_packet_sendto
                0x0040abac                .real_start_ofuip_udp_packet_send
                0x0040aba4                uip_udp_packet_send
                0x0040abf0                uip_udp_packet_sendto
 .text          0x0040ac54      0x2f4 contiki-redbee-econotag.a(neighbor-attr.o)
                0x0040ae30                neighbor_attr_add_neighbor
                0x0040ac70                .real_start_ofneighbor_attr_set_timeout
                0x0040ac54                neighbor_attr_get_timeout
                0x0040aeb8                neighbor_attr_set_data
                0x0040acb4                .real_start_ofneighbor_attr_list_neighbors
                0x0040acac                neighbor_attr_list_neighbors
                0x0040af10                .real_start_ofneighbor_attr_register
                0x0040adec                neighbor_attr_has_neighbor
                0x0040ad74                .real_start_ofneighbor_attr_tick
                0x0040adf4                .real_start_ofneighbor_attr_has_neighbor
                0x0040aec0                .real_start_ofneighbor_attr_set_data
                0x0040ad6c                neighbor_attr_tick
                0x0040af08                neighbor_attr_register
                0x0040ae38                .real_start_ofneighbor_attr_add_neighbor
                0x0040ac68                neighbor_attr_set_timeout
                0x0040ac5c                .real_start_ofneighbor_attr_get_timeout
                0x0040adb8                .real_start_ofneighbor_attr_remove_neighbor
                0x0040ad88                neighbor_attr_get_data
                0x0040ad90                .real_start_ofneighbor_attr_get_data
                0x0040adb0                neighbor_attr_remove_neighbor
 .text          0x0040af48       0x30 contiki-redbee-econotag.a(debug-uart.o)
                0x0040af48                dbg_send_bytes
                0x0040af50                .real_start_ofdbg_send_bytes
 .text          0x0040af78       0xe4 contiki-redbee-econotag.a(leds-arch.o)
                0x0040af78                leds_arch_init
                0x0040afc4                leds_arch_get
                0x0040b00c                .real_start_ofleds_arch_set
                0x0040af80                .real_start_ofleds_arch_init
                0x0040afcc                .real_start_ofleds_arch_get
                0x0040b004                leds_arch_set
 .text          0x0040b05c      0x1a4 contiki-redbee-econotag.a(uart2.o)
                0x0040b05c                uart2_isr
                0x0040b064                .real_start_ofuart2_isr
                0x0040b114                .real_start_ofuart2_putc
                0x0040b1a8                uart2_getc
                0x0040b10c                uart2_putc
                0x0040b1b0                .real_start_ofuart2_getc
 .text          0x0040b200      0x114 /usr/local/cs97/CodeSourcery/Sourcery_G++_Lite/bin/../lib/gcc/arm-none-eabi/4.3.2/libgcc.a(_udivsi3.o)
                0x0040b200                __udivsi3
                0x0040b200                __aeabi_uidiv
                0x0040b2f4                __aeabi_uidivmod
 .text          0x0040b314      0x148 /usr/local/cs97/CodeSourcery/Sourcery_G++_Lite/bin/../lib/gcc/arm-none-eabi/4.3.2/libgcc.a(_divsi3.o)
                0x0040b314                __aeabi_idiv
                0x0040b314                __divsi3
                0x0040b43c                __aeabi_idivmod
 .text          0x0040b45c        0x4 /usr/local/cs97/CodeSourcery/Sourcery_G++_Lite/bin/../lib/gcc/arm-none-eabi/4.3.2/libgcc.a(_dvmd_tls.o)
                0x0040b45c                __aeabi_ldiv0
                0x0040b45c                __aeabi_idiv0
 .text          0x0040b460       0x3c /usr/local/cs97/CodeSourcery/Sourcery_G++_Lite/bin/../lib/gcc/arm-none-eabi/4.3.2/libgcc.a(_aeabi_uldivmod.o)
                0x0040b460                __aeabi_uldivmod
 .text          0x0040b49c       0x80 /usr/local/cs97/CodeSourcery/Sourcery_G++_Lite/bin/../lib/gcc/arm-none-eabi/4.3.2/libgcc.a(bpabi.o)
                0x0040b49c                __gnu_uldivmod_helper
                0x0040b4dc                __gnu_ldivmod_helper
 .text          0x0040b51c      0x56c /usr/local/cs97/CodeSourcery/Sourcery_G++_Lite/bin/../lib/gcc/arm-none-eabi/4.3.2/libgcc.a(_divdi3.o)
                0x0040b51c                __divdi3
 .text          0x0040ba88      0x4fc /usr/local/cs97/CodeSourcery/Sourcery_G++_Lite/bin/../lib/gcc/arm-none-eabi/4.3.2/libgcc.a(_udivdi3.o)
                0x0040ba88                __udivdi3
 .text          0x0040bf84        0x0 /usr/local/cs97/CodeSourcery/Sourcery_G++_Lite/bin/../lib/gcc/arm-none-eabi/4.3.2/libgcc.a(_clz.o)
 .text          0x0040bf84       0xac /usr/local/cs97/CodeSourcery/Sourcery_G++_Lite/bin/../lib/gcc/arm-none-eabi/4.3.2/../../../../arm-none-eabi/lib/libc.a(lib_a-memcmp.o)
                0x0040bf84                memcmp
 .text          0x0040c030       0xfc /usr/local/cs97/CodeSourcery/Sourcery_G++_Lite/bin/../lib/gcc/arm-none-eabi/4.3.2/../../../../arm-none-eabi/lib/libc.a(lib_a-memcpy.o)
                0x0040c030                memcpy
 .text          0x0040c12c      0x144 /usr/local/cs97/CodeSourcery/Sourcery_G++_Lite/bin/../lib/gcc/arm-none-eabi/4.3.2/../../../../arm-none-eabi/lib/libc.a(lib_a-memmove.o)
                0x0040c12c                memmove
 .text          0x0040c270       0xd0 /usr/local/cs97/CodeSourcery/Sourcery_G++_Lite/bin/../lib/gcc/arm-none-eabi/4.3.2/../../../../arm-none-eabi/lib/libc.a(lib_a-memset.o)
                0x0040c270                memset
 .text          0x0040c340       0x9c /usr/local/cs97/CodeSourcery/Sourcery_G++_Lite/bin/../lib/gcc/arm-none-eabi/4.3.2/../../../../arm-none-eabi/lib/libc.a(lib_a-strlen.o)
                0x0040c340                strlen
 .text          0x0040c3dc      0x144 /usr/local/cs97/CodeSourcery/Sourcery_G++_Lite/bin/../lib/gcc/arm-none-eabi/4.3.2/../../../../arm-none-eabi/lib/libc.a(lib_a-strncmp.o)
                0x0040c3dc                strncmp
 *(.gnu.warning)
 *(.glue_7t)
 .glue_7t       0x0040c520        0x0 unicast-receiver.co
 .glue_7t       0x0040c520        0x0 obj_redbee-econotag/contiki-mc1322x-main.o
 .glue_7t       0x0040c520        0x0 obj_redbee-econotag/start.o
 .glue_7t       0x0040c520        0x0 obj_redbee-econotag/symbols.o
 .glue_7t       0x0040c520        0x0 contiki-redbee-econotag.a(rimeaddr.o)
 .glue_7t       0x0040c520        0x0 contiki-redbee-econotag.a(nullmac.o)
 .glue_7t       0x0040c520        0x0 contiki-redbee-econotag.a(nullrdc.o)
 .glue_7t       0x0040c520        0x0 contiki-redbee-econotag.a(mac.o)
 .glue_7t       0x0040c520        0x0 contiki-redbee-econotag.a(framer-802154.o)
 .glue_7t       0x0040c520        0x0 contiki-redbee-econotag.a(rpl-dag.o)
 .glue_7t       0x0040c520        0x0 contiki-redbee-econotag.a(rpl-icmp6.o)
 .glue_7t       0x0040c520        0x0 contiki-redbee-econotag.a(rpl-timers.o)
 .glue_7t       0x0040c520        0x0 contiki-redbee-econotag.a(rpl-of-etx.o)
 .glue_7t       0x0040c520        0x0 contiki-redbee-econotag.a(process.o)
 .glue_7t       0x0040c520        0x0 contiki-redbee-econotag.a(autostart.o)
 .glue_7t       0x0040c520        0x0 contiki-redbee-econotag.a(memb.o)
 .glue_7t       0x0040c520        0x0 contiki-redbee-econotag.a(list.o)
 .glue_7t       0x0040c520        0x0 contiki-redbee-econotag.a(etimer.o)
 .glue_7t       0x0040c520        0x0 contiki-redbee-econotag.a(ctimer.o)
 .glue_7t       0x0040c520        0x0 contiki-redbee-econotag.a(stimer.o)
 .glue_7t       0x0040c520        0x0 contiki-redbee-econotag.a(random.o)
 .glue_7t       0x0040c520        0x0 contiki-redbee-econotag.a(uip-debug.o)
 .glue_7t       0x0040c520        0x0 contiki-redbee-econotag.a(packetbuf.o)
 .glue_7t       0x0040c520        0x0 contiki-redbee-econotag.a(queuebuf.o)
 .glue_7t       0x0040c520        0x0 contiki-redbee-econotag.a(uip6.o)
 .glue_7t       0x0040c520        0x0 contiki-redbee-econotag.a(tcpip.o)
 .glue_7t       0x0040c520        0x0 contiki-redbee-econotag.a(simple-udp.o)
 .glue_7t       0x0040c520        0x0 contiki-redbee-econotag.a(uip-icmp6.o)
 .glue_7t       0x0040c520        0x0 contiki-redbee-econotag.a(uip-nd6.o)
 .glue_7t       0x0040c520        0x0 contiki-redbee-econotag.a(sicslowpan.o)
 .glue_7t       0x0040c520        0x0 contiki-redbee-econotag.a(neighbor-info.o)
 .glue_7t       0x0040c520        0x0 contiki-redbee-econotag.a(uip-ds6.o)
 .glue_7t       0x0040c520        0x0 contiki-redbee-econotag.a(servreg-hack.o)
 .glue_7t       0x0040c520        0x0 contiki-redbee-econotag.a(clock.o)
 .glue_7t       0x0040c520        0x0 contiki-redbee-econotag.a(button-sensor.o)
 .glue_7t       0x0040c520        0x0 contiki-redbee-econotag.a(sensors.o)
 .glue_7t       0x0040c520        0x0 contiki-redbee-econotag.a(watchdog.o)
 .glue_7t       0x0040c520        0x0 contiki-redbee-econotag.a(contiki-crm.o)
 .glue_7t       0x0040c520        0x0 contiki-redbee-econotag.a(contiki-maca.o)
 .glue_7t       0x0040c520        0x0 contiki-redbee-econotag.a(contiki-misc.o)
 .glue_7t       0x0040c520        0x0 contiki-redbee-econotag.a(leds.o)
 .glue_7t       0x0040c520        0x0 contiki-redbee-econotag.a(contiki-uart.o)
 .glue_7t       0x0040c520        0x0 contiki-redbee-econotag.a(dbg-printf.o)
 .glue_7t       0x0040c520        0x0 contiki-redbee-econotag.a(strformat.o)
 .glue_7t       0x0040c520        0x0 contiki-redbee-econotag.a(maca.o)
 .glue_7t       0x0040c520        0x0 contiki-redbee-econotag.a(nvm.o)
 .glue_7t       0x0040c520        0x0 contiki-redbee-econotag.a(uart1.o)
 .glue_7t       0x0040c520        0x0 contiki-redbee-econotag.a(default_lowleve)
 .glue_7t       0x0040c520        0x0 contiki-redbee-econotag.a(isr.o)
 .glue_7t       0x0040c520        0x0 contiki-redbee-econotag.a(frame802154.o)
 .glue_7t       0x0040c520        0x0 contiki-redbee-econotag.a(rpl.o)
 .glue_7t       0x0040c520        0x0 contiki-redbee-econotag.a(timer.o)
 .glue_7t       0x0040c520        0x0 contiki-redbee-econotag.a(uip-udp-packet.)
 .glue_7t       0x0040c520        0x0 contiki-redbee-econotag.a(neighbor-attr.o)
 .glue_7t       0x0040c520        0x0 contiki-redbee-econotag.a(debug-uart.o)
 .glue_7t       0x0040c520        0x0 contiki-redbee-econotag.a(leds-arch.o)
 .glue_7t       0x0040c520        0x0 contiki-redbee-econotag.a(uart2.o)
 .glue_7t       0x0040c520        0x0 /usr/local/cs97/CodeSourcery/Sourcery_G++_Lite/bin/../lib/gcc/arm-none-eabi/4.3.2/libgcc.a(_udivsi3.o)
 .glue_7t       0x0040c520        0x0 /usr/local/cs97/CodeSourcery/Sourcery_G++_Lite/bin/../lib/gcc/arm-none-eabi/4.3.2/libgcc.a(_divsi3.o)
 .glue_7t       0x0040c520        0x0 /usr/local/cs97/CodeSourcery/Sourcery_G++_Lite/bin/../lib/gcc/arm-none-eabi/4.3.2/libgcc.a(_dvmd_tls.o)
 .glue_7t       0x0040c520        0x0 /usr/local/cs97/CodeSourcery/Sourcery_G++_Lite/bin/../lib/gcc/arm-none-eabi/4.3.2/libgcc.a(_aeabi_uldivmod.o)
 .glue_7t       0x0040c520        0x0 /usr/local/cs97/CodeSourcery/Sourcery_G++_Lite/bin/../lib/gcc/arm-none-eabi/4.3.2/libgcc.a(bpabi.o)
 .glue_7t       0x0040c520        0x0 /usr/local/cs97/CodeSourcery/Sourcery_G++_Lite/bin/../lib/gcc/arm-none-eabi/4.3.2/libgcc.a(_divdi3.o)
 .glue_7t       0x0040c520        0x0 /usr/local/cs97/CodeSourcery/Sourcery_G++_Lite/bin/../lib/gcc/arm-none-eabi/4.3.2/libgcc.a(_udivdi3.o)
 .glue_7t       0x0040c520        0x0 /usr/local/cs97/CodeSourcery/Sourcery_G++_Lite/bin/../lib/gcc/arm-none-eabi/4.3.2/libgcc.a(_clz.o)
 .glue_7t       0x0040c520        0x0 /usr/local/cs97/CodeSourcery/Sourcery_G++_Lite/bin/../lib/gcc/arm-none-eabi/4.3.2/../../../../arm-none-eabi/lib/libc.a(lib_a-memcmp.o)
 .glue_7t       0x0040c520        0x0 /usr/local/cs97/CodeSourcery/Sourcery_G++_Lite/bin/../lib/gcc/arm-none-eabi/4.3.2/../../../../arm-none-eabi/lib/libc.a(lib_a-memcpy.o)
 .glue_7t       0x0040c520        0x0 /usr/local/cs97/CodeSourcery/Sourcery_G++_Lite/bin/../lib/gcc/arm-none-eabi/4.3.2/../../../../arm-none-eabi/lib/libc.a(lib_a-memmove.o)
 .glue_7t       0x0040c520        0x0 /usr/local/cs97/CodeSourcery/Sourcery_G++_Lite/bin/../lib/gcc/arm-none-eabi/4.3.2/../../../../arm-none-eabi/lib/libc.a(lib_a-memset.o)
 .glue_7t       0x0040c520        0x0 /usr/local/cs97/CodeSourcery/Sourcery_G++_Lite/bin/../lib/gcc/arm-none-eabi/4.3.2/../../../../arm-none-eabi/lib/libc.a(lib_a-strlen.o)
 .glue_7t       0x0040c520      0x598 /usr/local/cs97/CodeSourcery/Sourcery_G++_Lite/bin/../lib/gcc/arm-none-eabi/4.3.2/../../../../arm-none-eabi/lib/libc.a(lib_a-strncmp.o)
                0x0040c5b4                __set_power_change_to_arm
                0x0040c594                __uart1_init_change_to_arm
                0x0040c820                __memb_inmemb_from_thumb
                0x0040c5e0                __ctimer_init_from_thumb
                0x0040c74c                __rpl_add_route_change_to_arm
                0x0040c550                __rpl_set_root_from_thumb
                0x0040c8c0                __uip_unlisten_from_thumb
                0x0040c9dc                __udp_broadcast_new_change_to_arm
                0x0040c7cc                __process_post_change_to_arm
                0x0040c9cc                __rpl_ipv6_neighbor_callback_change_to_arm
                0x0040ca20                __get_free_packet_from_thumb
                0x0040c9f0                __etimer_pending_from_thumb
                0x0040c620                __rimeaddr_cmp_from_thumb
                0x0040c8fc                __uip_process_change_to_arm
                0x0040c8c4                __uip_unlisten_change_to_arm
                0x0040c9d8                __udp_broadcast_new_from_thumb
                0x0040c7f0                __etimer_stop_from_thumb
                0x0040c61c                __process_run_change_to_arm
                0x0040c898                __uip_nd6_na_input_from_thumb
                0x0040c660                __memset_from_thumb
                0x0040c5dc                __process_start_change_to_arm
                0x0040c530                __servreg_hack_init_from_thumb
                0x0040c80c                __clock_seconds_change_to_arm
                0x0040c86c                __memb_init_change_to_arm
                0x0040c6b4                __uip_ds6_defrt_rm_change_to_arm
                0x0040c57c                __rimeaddr_copy_change_to_arm
                0x0040c6bc                __list_remove_change_to_arm
                0x0040c574                __simple_udp_register_change_to_arm
                0x0040c668                __random_rand_from_thumb
                0x0040ca4c                __leds_arch_get_change_to_arm
                0x0040c568                __servreg_hack_register_from_thumb
                0x0040c8f4                __rpl_init_change_to_arm
                0x0040c7bc                __process_poll_change_to_arm
                0x0040c8a8                __uip_icmp6_echo_request_input_from_thumb
                0x0040ca7c                __maca_rx_callback_change_to_arm
                0x0040c8bc                __uip_ds6_init_change_to_arm
                0x0040c9f4                __etimer_pending_change_to_arm
                0x0040ca2c                __tx_packet_change_to_arm
                0x0040c68c                ____aeabi_uidiv_change_to_arm
                0x0040ca28                __tx_packet_from_thumb
                0x0040c664                __memset_change_to_arm
                0x0040c694                __rpl_reset_dio_timer_change_to_arm
                0x0040caa8                __uip_ds6_route_rm_from_thumb
                0x0040c750                __rpl_find_parent_from_thumb
                0x0040c9b8                __neighbor_attr_has_neighbor_from_thumb
                0x0040c640                __packetbuf_datalen_from_thumb
                0x0040c558                __rpl_get_dag_from_thumb
                0x0040c7c8                __process_post_from_thumb
                0x0040c680                __frame802154_create_from_thumb
                0x0040c69c                __list_head_change_to_arm
                0x0040c778                __uip_ds6_get_link_local_from_thumb
                0x0040c7ec                __etimer_set_change_to_arm
                0x0040c644                __packetbuf_datalen_change_to_arm
                0x0040c900                __uip_ds6_periodic_from_thumb
                0x0040c8b4                __uip_ds6_select_src_change_to_arm
                0x0040c87c                __tcpip_uipcall_change_to_arm
                0x0040c638                __mac_call_sent_callback_from_thumb
                0x0040c678                __packetbuf_hdralloc_from_thumb
                0x0040c7a8                __process_exit_from_thumb
                0x0040c79c                __dis_output_change_to_arm
                0x0040c708                __rpl_remove_routes_from_thumb
                0x0040c598                __default_vreg_init_from_thumb
                0x0040c7f4                __etimer_stop_change_to_arm
                0x0040c8e4                __process_alloc_event_change_to_arm
                0x0040c878                __tcpip_uipcall_from_thumb
                0x0040c784                __dio_output_change_to_arm
                0x0040c834                __packetbuf_attr_copyfrom_change_to_arm
                0x0040ca14                __strlen_change_to_arm
                0x0040c6f4                __rpl_schedule_dao_change_to_arm
                0x0040ca04                __etimer_request_poll_change_to_arm
                0x0040c88c                __uip_ds6_is_addr_onlink_change_to_arm
                0x0040c5f8                ____aeabi_idiv_from_thumb
                0x0040c844                __packetbuf_attr_copyto_change_to_arm
                0x0040c9f8                __etimer_next_expiration_time_from_thumb
                0x0040c690                __rpl_reset_dio_timer_from_thumb
                0x0040c5e8                __memcpy_from_thumb
                0x0040c9b4                __neighbor_attr_add_neighbor_change_to_arm
                0x0040c92c                __uip_udp_packet_sendto_change_to_arm
                0x0040c894                __uip_nd6_ns_input_change_to_arm
                0x0040c7ac                __process_exit_change_to_arm
                0x0040c688                ____aeabi_uidiv_from_thumb
                0x0040c7c4                __timer_expired_change_to_arm
                0x0040c990                __queuebuf_free_from_thumb
                0x0040c714                __ctimer_stop_change_to_arm
                0x0040cab4                __uart1_putc_change_to_arm
                0x0040ca64                __format_str_v_change_to_arm
                0x0040c6d8                __list_init_from_thumb
                0x0040c818                __srand_from_thumb
                0x0040c540                __uip_ds6_addr_add_from_thumb
                0x0040c8d8                __uip_nd6_ns_output_from_thumb
                0x0040c7e4                __timer_set_change_to_arm
                0x0040c7d8                __timer_reset_from_thumb
                0x0040c658                __packetbuf_hdrreduce_from_thumb
                0x0040c848                __packetbuf_is_reference_from_thumb
                0x0040c588                __rimeaddr_set_node_addr_from_thumb
                0x0040ca1c                __strncmp_change_to_arm
                0x0040ca94                __neighbor_info_subscribe_change_to_arm
                0x0040c58c                __rimeaddr_set_node_addr_change_to_arm
                0x0040c9ec                __list_push_change_to_arm
                0x0040c8a0                __uip_rpl_input_from_thumb
                0x0040c7a4                __ctimer_reset_change_to_arm
                0x0040c6a8                __uip_ds6_defrt_lookup_from_thumb
                0x0040c8d0                __uip_ds6_defrt_choose_from_thumb
                0x0040c8e8                __uip_init_from_thumb
                0x0040c700                __list_item_next_from_thumb
                0x0040c988                __queuebuf_to_packetbuf_from_thumb
                0x0040c768                ____aeabi_uidivmod_from_thumb
                0x0040c8a4                __uip_rpl_input_change_to_arm
                0x0040c6a4                __uip_ds6_route_rm_by_nexthop_change_to_arm
                0x0040c734                __stimer_set_change_to_arm
                0x0040c5cc                __leds_init_change_to_arm
                0x0040c614                __uart1_getc_change_to_arm
                0x0040c854                __packetbuf_reference_ptr_change_to_arm
                0x0040c62c                __packetbuf_hdrptr_change_to_arm
                0x0040c9a4                __neighbor_attr_get_data_change_to_arm
                0x0040c6b0                __uip_ds6_defrt_rm_from_thumb
                0x0040c6e8                __dao_output_from_thumb
                0x0040c8f8                __uip_process_from_thumb
                0x0040c5f4                __queuebuf_init_change_to_arm
                0x0040c920                __udp_new_from_thumb
                0x0040c604                __autostart_start_change_to_arm
                0x0040c870                __uip_icmp6_error_output_from_thumb
                0x0040c608                __check_maca_from_thumb
                0x0040c794                __rpl_recalculate_ranks_change_to_arm
                0x0040c52c                __uip_debug_ipaddr_print_change_to_arm
                0x0040c5d4                __process_init_change_to_arm
                0x0040c944                __memmove_change_to_arm
                0x0040ca30                __rx_packet_from_thumb
                0x0040c868                __memb_init_from_thumb
                0x0040c9d4                __stimer_expired_change_to_arm
                0x0040c520                __printf_from_thumb
                0x0040c6e0                __uip_ds6_defrt_add_from_thumb
                0x0040c5b0                __set_power_from_thumb
                0x0040c924                __udp_new_change_to_arm
                0x0040c5f0                __queuebuf_init_from_thumb
                0x0040c6f0                __rpl_schedule_dao_from_thumb
                0x0040c880                __uip_ds6_maddr_lookup_from_thumb
                0x0040c528                __uip_debug_ipaddr_print_from_thumb
                0x0040c65c                __packetbuf_hdrreduce_change_to_arm
                0x0040c914                __uip_listen_change_to_arm
                0x0040c7b4                __clock_time_change_to_arm
                0x0040c8b8                __uip_ds6_init_from_thumb
                0x0040ca08                __sensors_changed_from_thumb
                0x0040c54c                __uip_ds6_addr_lookup_change_to_arm
                0x0040c64c                __packetbuf_dataptr_change_to_arm
                0x0040c94c                __uip_htonl_change_to_arm
                0x0040c5c8                __leds_init_from_thumb
                0x0040c9c4                __neighbor_attr_set_data_change_to_arm
                0x0040c984                __queuebuf_new_from_packetbuf_change_to_arm
                0x0040c6e4                __uip_ds6_defrt_add_change_to_arm
                0x0040c6ec                __dao_output_change_to_arm
                0x0040c744                __uip_ds6_route_lookup_change_to_arm
                0x0040c60c                __check_maca_change_to_arm
                0x0040c994                __queuebuf_free_change_to_arm
                0x0040c590                __uart1_init_from_thumb
                0x0040c7e0                __timer_set_from_thumb
                0x0040c928                __uip_udp_packet_sendto_from_thumb
                0x0040c95c                __neighbor_info_packet_received_change_to_arm
                0x0040c704                __list_item_next_change_to_arm
                0x0040c968                __tcpip_set_outputfunc_from_thumb
                0x0040c9e8                __list_push_from_thumb
                0x0040c884                __uip_ds6_maddr_lookup_change_to_arm
                0x0040ca24                __get_free_packet_change_to_arm
                0x0040c978                __packetbuf_set_datalen_from_thumb
                0x0040ca44                __leds_arch_set_change_to_arm
                0x0040ca88                __rpl_reset_periodic_timer_from_thumb
                0x0040c63c                __mac_call_sent_callback_change_to_arm
                0x0040c5bc                __cal_ring_osc_change_to_arm
                0x0040c8cc                __process_post_synch_change_to_arm
                0x0040c9a8                __neighbor_attr_register_from_thumb
                0x0040c5b8                __cal_ring_osc_from_thumb
                0x0040c75c                __etimer_expiration_time_change_to_arm
                0x0040c838                __packetbuf_clear_from_thumb
                0x0040c5a0                __maca_init_from_thumb
                0x0040ca68                __dbg_send_bytes_from_thumb
                0x0040c53c                __uip_ds6_set_addr_iid_change_to_arm
                0x0040c6b8                __list_remove_from_thumb
                0x0040c754                __rpl_find_parent_change_to_arm
                0x0040c7e8                __etimer_set_from_thumb
                0x0040c600                __autostart_start_from_thumb
                0x0040c66c                __random_rand_change_to_arm
                0x0040c934                __uip_icmp6chksum_change_to_arm
                0x0040c654                __frame802154_parse_change_to_arm
                0x0040c9fc                __etimer_next_expiration_time_change_to_arm
                0x0040c5e4                __ctimer_init_change_to_arm
                0x0040c564                __rpl_set_prefix_change_to_arm
                0x0040ca9c                __uip_ds6_maddr_add_change_to_arm
                0x0040ca00                __etimer_request_poll_from_thumb
                0x0040c850                __packetbuf_reference_ptr_from_thumb
                0x0040c824                __memb_inmemb_change_to_arm
                0x0040c940                __memmove_from_thumb
                0x0040c5c0                __clock_init_from_thumb
                0x0040c998                __neighbor_info_packet_sent_from_thumb
                0x0040c938                __tcpip_ipv6_output_from_thumb
                0x0040c8c8                __process_post_synch_from_thumb
                0x0040c7d4                __timer_restart_change_to_arm
                0x0040c5ac                __set_channel_change_to_arm
                0x0040c548                __uip_ds6_addr_lookup_from_thumb
                0x0040c81c                __srand_change_to_arm
                0x0040c5a4                __maca_init_change_to_arm
                0x0040c720                __uip_ds6_nbr_lookup_from_thumb
                0x0040c770                __ctimer_set_from_thumb
                0x0040ca50                __clock_delay_from_thumb
                0x0040ca38                __free_packet_from_thumb
                0x0040c7dc                __timer_reset_change_to_arm
                0x0040c874                __uip_icmp6_error_output_change_to_arm
                0x0040c560                __rpl_set_prefix_from_thumb
                0x0040c610                __uart1_getc_from_thumb
                0x0040c974                __watchdog_periodic_change_to_arm
                0x0040c84c                __packetbuf_is_reference_change_to_arm
                0x0040ca0c                __sensors_changed_change_to_arm
                0x0040c748                __rpl_add_route_from_thumb
                0x0040c59c                __default_vreg_init_change_to_arm
                0x0040c9b0                __neighbor_attr_add_neighbor_from_thumb
                0x0040c6cc                __memb_alloc_change_to_arm
                0x0040c5d8                __process_start_from_thumb
                0x0040c8ec                __uip_init_change_to_arm
                0x0040ca70                ____aeabi_uldivmod_from_thumb
                0x0040c738                __rpl_process_dio_from_thumb
                0x0040ca80                __maca_tx_callback_from_thumb
                0x0040c830                __packetbuf_attr_copyfrom_from_thumb
                0x0040c6d0                __list_add_from_thumb
                0x0040c8dc                __uip_nd6_ns_output_change_to_arm
                0x0040c888                __uip_ds6_is_addr_onlink_from_thumb
                0x0040c99c                __neighbor_info_packet_sent_change_to_arm
                0x0040c764                __etimer_expired_change_to_arm
                0x0040c790                __rpl_recalculate_ranks_from_thumb
                0x0040c9c8                __rpl_ipv6_neighbor_callback_from_thumb
                0x0040c91c                __uip_connect_change_to_arm
                0x0040c864                __packetbuf_copyto_change_to_arm
                0x0040c76c                ____aeabi_uidivmod_change_to_arm
                0x0040c8d4                __uip_ds6_defrt_choose_change_to_arm
                0x0040c740                __uip_ds6_route_lookup_from_thumb
                0x0040c780                __dio_output_from_thumb
                0x0040c56c                __servreg_hack_register_change_to_arm
                0x0040c6ac                __uip_ds6_defrt_lookup_change_to_arm
                0x0040c78c                __rpl_purge_routes_change_to_arm
                0x0040c980                __queuebuf_new_from_packetbuf_from_thumb
                0x0040ca48                __leds_arch_get_from_thumb
                0x0040c97c                __packetbuf_set_datalen_change_to_arm
                0x0040c83c                __packetbuf_clear_change_to_arm
                0x0040c948                __uip_htonl_from_thumb
                0x0040c544                __uip_ds6_addr_add_change_to_arm
                0x0040c96c                __tcpip_set_outputfunc_change_to_arm
                0x0040c918                __uip_connect_from_thumb
                0x0040c728                __uip_ds6_nbr_add_from_thumb
                0x0040c958                __neighbor_info_packet_received_from_thumb
                0x0040c9a0                __neighbor_attr_get_data_from_thumb
                0x0040c554                __rpl_set_root_change_to_arm
                0x0040ca60                __format_str_v_from_thumb
                0x0040c73c                __rpl_process_dio_change_to_arm
                0x0040c7b8                __process_poll_from_thumb
                0x0040c93c                __tcpip_ipv6_output_change_to_arm
                0x0040c954                __uip_ds6_dad_failed_change_to_arm
                0x0040caa0                __uip_ds6_route_add_from_thumb
                0x0040c9e4                __uip_udp_packet_send_change_to_arm
                0x0040c6c4                __memb_free_change_to_arm
                0x0040c524                __printf_change_to_arm
                0x0040c788                __rpl_purge_routes_from_thumb
                0x0040c9c0                __neighbor_attr_set_data_from_thumb
                0x0040c7a0                __ctimer_reset_from_thumb
                0x0040ca5c                __leds_arch_init_change_to_arm
                0x0040c6f8                __list_length_from_thumb
                0x0040c624                __rimeaddr_cmp_change_to_arm
                0x0040ca98                __uip_ds6_maddr_add_from_thumb
                0x0040c6d4                __list_add_change_to_arm
                0x0040c72c                __uip_ds6_nbr_add_change_to_arm
                0x0040c858                __packetbuf_copyto_hdr_from_thumb
                0x0040c758                __etimer_expiration_time_from_thumb
                0x0040c650                __frame802154_parse_from_thumb
                0x0040c6dc                __list_init_change_to_arm
                0x0040c9d0                __stimer_expired_from_thumb
                0x0040ca78                __maca_rx_callback_from_thumb
                0x0040c578                __rimeaddr_copy_from_thumb
                0x0040c964                __tcpip_input_change_to_arm
                0x0040ca34                __rx_packet_change_to_arm
                0x0040ca10                __strlen_from_thumb
                0x0040c6c8                __memb_alloc_from_thumb
                0x0040c8e0                __process_alloc_event_from_thumb
                0x0040c970                __watchdog_periodic_from_thumb
                0x0040c7b0                __clock_time_from_thumb
                0x0040c810                __rand_from_thumb
                0x0040c89c                __uip_nd6_na_input_change_to_arm
                0x0040c634                __packetbuf_totlen_change_to_arm
                0x0040c534                __servreg_hack_init_change_to_arm
                0x0040c618                __process_run_from_thumb
                0x0040c698                __list_head_from_thumb
                0x0040c580                __memcmp_from_thumb
                0x0040c5d0                __process_init_from_thumb
                0x0040c7d0                __timer_restart_from_thumb
                0x0040c628                __packetbuf_hdrptr_from_thumb
                0x0040c70c                __rpl_remove_routes_change_to_arm
                0x0040caa4                __uip_ds6_route_add_change_to_arm
                0x0040c5a8                __set_channel_from_thumb
                0x0040c584                __memcmp_change_to_arm
                0x0040c85c                __packetbuf_copyto_hdr_change_to_arm
                0x0040c828                __packetbuf_copyfrom_from_thumb
                0x0040c630                __packetbuf_totlen_from_thumb
                0x0040ca40                __leds_arch_set_from_thumb
                0x0040c840                __packetbuf_attr_copyto_from_thumb
                0x0040ca8c                __rpl_reset_periodic_timer_change_to_arm
                0x0040c930                __uip_icmp6chksum_from_thumb
                0x0040ca74                ____aeabi_uldivmod_change_to_arm
                0x0040c570                __simple_udp_register_from_thumb
                0x0040c670                __frame802154_hdrlen_from_thumb
                0x0040c674                __frame802154_hdrlen_change_to_arm
                0x0040c7c0                __timer_expired_from_thumb
                0x0040c82c                __packetbuf_copyfrom_change_to_arm
                0x0040c71c                __uip_icmp6_send_change_to_arm
                0x0040ca54                __clock_delay_change_to_arm
                0x0040ca58                __leds_arch_init_from_thumb
                0x0040c8f0                __rpl_init_from_thumb
                0x0040cab0                __uart1_putc_from_thumb
                0x0040c77c                __uip_ds6_get_link_local_change_to_arm
                0x0040c9bc                __neighbor_attr_has_neighbor_change_to_arm
                0x0040c724                __uip_ds6_nbr_lookup_change_to_arm
                0x0040c5ec                __memcpy_change_to_arm
                0x0040c860                __packetbuf_copyto_from_thumb
                0x0040c760                __etimer_expired_from_thumb
                0x0040c9ac                __neighbor_attr_register_change_to_arm
                0x0040c6c0                __memb_free_from_thumb
                0x0040c808                __clock_seconds_from_thumb
                0x0040c910                __uip_listen_from_thumb
                0x0040ca18                __strncmp_from_thumb
                0x0040ca84                __maca_tx_callback_change_to_arm
                0x0040c774                __ctimer_set_change_to_arm
                0x0040c67c                __packetbuf_hdralloc_change_to_arm
                0x0040c8b0                __uip_ds6_select_src_from_thumb
                0x0040c798                __dis_output_from_thumb
                0x0040c6a0                __uip_ds6_route_rm_by_nexthop_from_thumb
                0x0040c538                __uip_ds6_set_addr_iid_from_thumb
                0x0040c5fc                ____aeabi_idiv_change_to_arm
                0x0040c904                __uip_ds6_periodic_change_to_arm
                0x0040c710                __ctimer_stop_from_thumb
                0x0040ca3c                __free_packet_change_to_arm
                0x0040c9e0                __uip_udp_packet_send_from_thumb
                0x0040c98c                __queuebuf_to_packetbuf_change_to_arm
                0x0040c90c                __uip_udp_new_change_to_arm
                0x0040c804                __etimer_reset_change_to_arm
                0x0040c730                __stimer_set_from_thumb
                0x0040ca90                __neighbor_info_subscribe_from_thumb
                0x0040ca6c                __dbg_send_bytes_change_to_arm
                0x0040caac                __uip_ds6_route_rm_change_to_arm
                0x0040c890                __uip_nd6_ns_input_from_thumb
                0x0040c800                __etimer_reset_from_thumb
                0x0040c5c4                __clock_init_change_to_arm
                0x0040c7fc                __etimer_restart_change_to_arm
                0x0040c55c                __rpl_get_dag_change_to_arm
                0x0040c6fc                __list_length_change_to_arm
                0x0040c648                __packetbuf_dataptr_from_thumb
                0x0040c950                __uip_ds6_dad_failed_from_thumb
                0x0040c7f8                __etimer_restart_from_thumb
                0x0040c8ac                __uip_icmp6_echo_request_input_change_to_arm
                0x0040c960                __tcpip_input_from_thumb
                0x0040c814                __rand_change_to_arm
                0x0040c908                __uip_udp_new_from_thumb
                0x0040c718                __uip_icmp6_send_from_thumb
                0x0040c684                __frame802154_create_change_to_arm
 *(.glue_7)
 .glue_7        0x0040cab8        0x0 unicast-receiver.co
 .glue_7        0x0040cab8        0x0 obj_redbee-econotag/contiki-mc1322x-main.o
 .glue_7        0x0040cab8        0x0 obj_redbee-econotag/start.o
 .glue_7        0x0040cab8        0x0 obj_redbee-econotag/symbols.o
 .glue_7        0x0040cab8        0x0 contiki-redbee-econotag.a(rimeaddr.o)
 .glue_7        0x0040cab8        0x0 contiki-redbee-econotag.a(nullmac.o)
 .glue_7        0x0040cab8        0x0 contiki-redbee-econotag.a(nullrdc.o)
 .glue_7        0x0040cab8        0x0 contiki-redbee-econotag.a(mac.o)
 .glue_7        0x0040cab8        0x0 contiki-redbee-econotag.a(framer-802154.o)
 .glue_7        0x0040cab8        0x0 contiki-redbee-econotag.a(rpl-dag.o)
 .glue_7        0x0040cab8        0x0 contiki-redbee-econotag.a(rpl-icmp6.o)
 .glue_7        0x0040cab8        0x0 contiki-redbee-econotag.a(rpl-timers.o)
 .glue_7        0x0040cab8        0x0 contiki-redbee-econotag.a(rpl-of-etx.o)
 .glue_7        0x0040cab8        0x0 contiki-redbee-econotag.a(process.o)
 .glue_7        0x0040cab8        0x0 contiki-redbee-econotag.a(autostart.o)
 .glue_7        0x0040cab8        0x0 contiki-redbee-econotag.a(memb.o)
 .glue_7        0x0040cab8        0x0 contiki-redbee-econotag.a(list.o)
 .glue_7        0x0040cab8        0x0 contiki-redbee-econotag.a(etimer.o)
 .glue_7        0x0040cab8        0x0 contiki-redbee-econotag.a(ctimer.o)
 .glue_7        0x0040cab8        0x0 contiki-redbee-econotag.a(stimer.o)
 .glue_7        0x0040cab8        0x0 contiki-redbee-econotag.a(random.o)
 .glue_7        0x0040cab8        0x0 contiki-redbee-econotag.a(uip-debug.o)
 .glue_7        0x0040cab8        0x0 contiki-redbee-econotag.a(packetbuf.o)
 .glue_7        0x0040cab8        0x0 contiki-redbee-econotag.a(queuebuf.o)
 .glue_7        0x0040cab8        0x0 contiki-redbee-econotag.a(uip6.o)
 .glue_7        0x0040cab8        0x0 contiki-redbee-econotag.a(tcpip.o)
 .glue_7        0x0040cab8        0x0 contiki-redbee-econotag.a(simple-udp.o)
 .glue_7        0x0040cab8        0x0 contiki-redbee-econotag.a(uip-icmp6.o)
 .glue_7        0x0040cab8        0x0 contiki-redbee-econotag.a(uip-nd6.o)
 .glue_7        0x0040cab8        0x0 contiki-redbee-econotag.a(sicslowpan.o)
 .glue_7        0x0040cab8        0x0 contiki-redbee-econotag.a(neighbor-info.o)
 .glue_7        0x0040cab8        0x0 contiki-redbee-econotag.a(uip-ds6.o)
 .glue_7        0x0040cab8        0x0 contiki-redbee-econotag.a(servreg-hack.o)
 .glue_7        0x0040cab8        0x0 contiki-redbee-econotag.a(clock.o)
 .glue_7        0x0040cab8        0x0 contiki-redbee-econotag.a(button-sensor.o)
 .glue_7        0x0040cab8        0x0 contiki-redbee-econotag.a(sensors.o)
 .glue_7        0x0040cab8        0x0 contiki-redbee-econotag.a(watchdog.o)
 .glue_7        0x0040cab8        0x0 contiki-redbee-econotag.a(contiki-crm.o)
 .glue_7        0x0040cab8        0x0 contiki-redbee-econotag.a(contiki-maca.o)
 .glue_7        0x0040cab8        0x0 contiki-redbee-econotag.a(contiki-misc.o)
 .glue_7        0x0040cab8        0x0 contiki-redbee-econotag.a(leds.o)
 .glue_7        0x0040cab8        0x0 contiki-redbee-econotag.a(contiki-uart.o)
 .glue_7        0x0040cab8        0x0 contiki-redbee-econotag.a(dbg-printf.o)
 .glue_7        0x0040cab8        0x0 contiki-redbee-econotag.a(strformat.o)
 .glue_7        0x0040cab8        0x0 contiki-redbee-econotag.a(maca.o)
 .glue_7        0x0040cab8        0x0 contiki-redbee-econotag.a(nvm.o)
 .glue_7        0x0040cab8        0x0 contiki-redbee-econotag.a(uart1.o)
 .glue_7        0x0040cab8        0x0 contiki-redbee-econotag.a(default_lowleve)
 .glue_7        0x0040cab8        0x0 contiki-redbee-econotag.a(isr.o)
 .glue_7        0x0040cab8        0x0 contiki-redbee-econotag.a(frame802154.o)
 .glue_7        0x0040cab8        0x0 contiki-redbee-econotag.a(rpl.o)
 .glue_7        0x0040cab8        0x0 contiki-redbee-econotag.a(timer.o)
 .glue_7        0x0040cab8        0x0 contiki-redbee-econotag.a(uip-udp-packet.)
 .glue_7        0x0040cab8        0x0 contiki-redbee-econotag.a(neighbor-attr.o)
 .glue_7        0x0040cab8        0x0 contiki-redbee-econotag.a(debug-uart.o)
 .glue_7        0x0040cab8        0x0 contiki-redbee-econotag.a(leds-arch.o)
 .glue_7        0x0040cab8        0x0 contiki-redbee-econotag.a(uart2.o)
 .glue_7        0x0040cab8        0x0 /usr/local/cs97/CodeSourcery/Sourcery_G++_Lite/bin/../lib/gcc/arm-none-eabi/4.3.2/libgcc.a(_udivsi3.o)
 .glue_7        0x0040cab8        0x0 /usr/local/cs97/CodeSourcery/Sourcery_G++_Lite/bin/../lib/gcc/arm-none-eabi/4.3.2/libgcc.a(_divsi3.o)
 .glue_7        0x0040cab8        0x0 /usr/local/cs97/CodeSourcery/Sourcery_G++_Lite/bin/../lib/gcc/arm-none-eabi/4.3.2/libgcc.a(_dvmd_tls.o)
 .glue_7        0x0040cab8        0x0 /usr/local/cs97/CodeSourcery/Sourcery_G++_Lite/bin/../lib/gcc/arm-none-eabi/4.3.2/libgcc.a(_aeabi_uldivmod.o)
 .glue_7        0x0040cab8        0x0 /usr/local/cs97/CodeSourcery/Sourcery_G++_Lite/bin/../lib/gcc/arm-none-eabi/4.3.2/libgcc.a(bpabi.o)
 .glue_7        0x0040cab8        0x0 /usr/local/cs97/CodeSourcery/Sourcery_G++_Lite/bin/../lib/gcc/arm-none-eabi/4.3.2/libgcc.a(_divdi3.o)
 .glue_7        0x0040cab8        0x0 /usr/local/cs97/CodeSourcery/Sourcery_G++_Lite/bin/../lib/gcc/arm-none-eabi/4.3.2/libgcc.a(_udivdi3.o)
 .glue_7        0x0040cab8        0x0 /usr/local/cs97/CodeSourcery/Sourcery_G++_Lite/bin/../lib/gcc/arm-none-eabi/4.3.2/libgcc.a(_clz.o)
 .glue_7        0x0040cab8        0x0 /usr/local/cs97/CodeSourcery/Sourcery_G++_Lite/bin/../lib/gcc/arm-none-eabi/4.3.2/../../../../arm-none-eabi/lib/libc.a(lib_a-memcmp.o)
 .glue_7        0x0040cab8        0x0 /usr/local/cs97/CodeSourcery/Sourcery_G++_Lite/bin/../lib/gcc/arm-none-eabi/4.3.2/../../../../arm-none-eabi/lib/libc.a(lib_a-memcpy.o)
 .glue_7        0x0040cab8        0x0 /usr/local/cs97/CodeSourcery/Sourcery_G++_Lite/bin/../lib/gcc/arm-none-eabi/4.3.2/../../../../arm-none-eabi/lib/libc.a(lib_a-memmove.o)
 .glue_7        0x0040cab8        0x0 /usr/local/cs97/CodeSourcery/Sourcery_G++_Lite/bin/../lib/gcc/arm-none-eabi/4.3.2/../../../../arm-none-eabi/lib/libc.a(lib_a-memset.o)
 .glue_7        0x0040cab8        0x0 /usr/local/cs97/CodeSourcery/Sourcery_G++_Lite/bin/../lib/gcc/arm-none-eabi/4.3.2/../../../../arm-none-eabi/lib/libc.a(lib_a-strlen.o)
 .glue_7        0x0040cab8        0x0 /usr/local/cs97/CodeSourcery/Sourcery_G++_Lite/bin/../lib/gcc/arm-none-eabi/4.3.2/../../../../arm-none-eabi/lib/libc.a(lib_a-strncmp.o)
 *(.vfp11_veneer)
 .vfp11_veneer  0x0040cab8        0x0 unicast-receiver.co
 .vfp11_veneer  0x0040cab8        0x0 obj_redbee-econotag/contiki-mc1322x-main.o
 .vfp11_veneer  0x0040cab8        0x0 obj_redbee-econotag/start.o
 .vfp11_veneer  0x0040cab8        0x0 obj_redbee-econotag/symbols.o
 .vfp11_veneer  0x0040cab8        0x0 contiki-redbee-econotag.a(rimeaddr.o)
 .vfp11_veneer  0x0040cab8        0x0 contiki-redbee-econotag.a(nullmac.o)
 .vfp11_veneer  0x0040cab8        0x0 contiki-redbee-econotag.a(nullrdc.o)
 .vfp11_veneer  0x0040cab8        0x0 contiki-redbee-econotag.a(mac.o)
 .vfp11_veneer  0x0040cab8        0x0 contiki-redbee-econotag.a(framer-802154.o)
 .vfp11_veneer  0x0040cab8        0x0 contiki-redbee-econotag.a(rpl-dag.o)
 .vfp11_veneer  0x0040cab8        0x0 contiki-redbee-econotag.a(rpl-icmp6.o)
 .vfp11_veneer  0x0040cab8        0x0 contiki-redbee-econotag.a(rpl-timers.o)
 .vfp11_veneer  0x0040cab8        0x0 contiki-redbee-econotag.a(rpl-of-etx.o)
 .vfp11_veneer  0x0040cab8        0x0 contiki-redbee-econotag.a(process.o)
 .vfp11_veneer  0x0040cab8        0x0 contiki-redbee-econotag.a(autostart.o)
 .vfp11_veneer  0x0040cab8        0x0 contiki-redbee-econotag.a(memb.o)
 .vfp11_veneer  0x0040cab8        0x0 contiki-redbee-econotag.a(list.o)
 .vfp11_veneer  0x0040cab8        0x0 contiki-redbee-econotag.a(etimer.o)
 .vfp11_veneer  0x0040cab8        0x0 contiki-redbee-econotag.a(ctimer.o)
 .vfp11_veneer  0x0040cab8        0x0 contiki-redbee-econotag.a(stimer.o)
 .vfp11_veneer  0x0040cab8        0x0 contiki-redbee-econotag.a(random.o)
 .vfp11_veneer  0x0040cab8        0x0 contiki-redbee-econotag.a(uip-debug.o)
 .vfp11_veneer  0x0040cab8        0x0 contiki-redbee-econotag.a(packetbuf.o)
 .vfp11_veneer  0x0040cab8        0x0 contiki-redbee-econotag.a(queuebuf.o)
 .vfp11_veneer  0x0040cab8        0x0 contiki-redbee-econotag.a(uip6.o)
 .vfp11_veneer  0x0040cab8        0x0 contiki-redbee-econotag.a(tcpip.o)
 .vfp11_veneer  0x0040cab8        0x0 contiki-redbee-econotag.a(simple-udp.o)
 .vfp11_veneer  0x0040cab8        0x0 contiki-redbee-econotag.a(uip-icmp6.o)
 .vfp11_veneer  0x0040cab8        0x0 contiki-redbee-econotag.a(uip-nd6.o)
 .vfp11_veneer  0x0040cab8        0x0 contiki-redbee-econotag.a(sicslowpan.o)
 .vfp11_veneer  0x0040cab8        0x0 contiki-redbee-econotag.a(neighbor-info.o)
 .vfp11_veneer  0x0040cab8        0x0 contiki-redbee-econotag.a(uip-ds6.o)
 .vfp11_veneer  0x0040cab8        0x0 contiki-redbee-econotag.a(servreg-hack.o)
 .vfp11_veneer  0x0040cab8        0x0 contiki-redbee-econotag.a(clock.o)
 .vfp11_veneer  0x0040cab8        0x0 contiki-redbee-econotag.a(button-sensor.o)
 .vfp11_veneer  0x0040cab8        0x0 contiki-redbee-econotag.a(sensors.o)
 .vfp11_veneer  0x0040cab8        0x0 contiki-redbee-econotag.a(watchdog.o)
 .vfp11_veneer  0x0040cab8        0x0 contiki-redbee-econotag.a(contiki-crm.o)
 .vfp11_veneer  0x0040cab8        0x0 contiki-redbee-econotag.a(contiki-maca.o)
 .vfp11_veneer  0x0040cab8        0x0 contiki-redbee-econotag.a(contiki-misc.o)
 .vfp11_veneer  0x0040cab8        0x0 contiki-redbee-econotag.a(leds.o)
 .vfp11_veneer  0x0040cab8        0x0 contiki-redbee-econotag.a(contiki-uart.o)
 .vfp11_veneer  0x0040cab8        0x0 contiki-redbee-econotag.a(dbg-printf.o)
 .vfp11_veneer  0x0040cab8        0x0 contiki-redbee-econotag.a(strformat.o)
 .vfp11_veneer  0x0040cab8        0x0 contiki-redbee-econotag.a(maca.o)
 .vfp11_veneer  0x0040cab8        0x0 contiki-redbee-econotag.a(nvm.o)
 .vfp11_veneer  0x0040cab8        0x0 contiki-redbee-econotag.a(uart1.o)
 .vfp11_veneer  0x0040cab8        0x0 contiki-redbee-econotag.a(default_lowleve)
 .vfp11_veneer  0x0040cab8        0x0 contiki-redbee-econotag.a(isr.o)
 .vfp11_veneer  0x0040cab8        0x0 contiki-redbee-econotag.a(frame802154.o)
 .vfp11_veneer  0x0040cab8        0x0 contiki-redbee-econotag.a(rpl.o)
 .vfp11_veneer  0x0040cab8        0x0 contiki-redbee-econotag.a(timer.o)
 .vfp11_veneer  0x0040cab8        0x0 contiki-redbee-econotag.a(uip-udp-packet.)
 .vfp11_veneer  0x0040cab8        0x0 contiki-redbee-econotag.a(neighbor-attr.o)
 .vfp11_veneer  0x0040cab8        0x0 contiki-redbee-econotag.a(debug-uart.o)
 .vfp11_veneer  0x0040cab8        0x0 contiki-redbee-econotag.a(leds-arch.o)
 .vfp11_veneer  0x0040cab8        0x0 contiki-redbee-econotag.a(uart2.o)
 .vfp11_veneer  0x0040cab8        0x0 /usr/local/cs97/CodeSourcery/Sourcery_G++_Lite/bin/../lib/gcc/arm-none-eabi/4.3.2/libgcc.a(_udivsi3.o)
 .vfp11_veneer  0x0040cab8        0x0 /usr/local/cs97/CodeSourcery/Sourcery_G++_Lite/bin/../lib/gcc/arm-none-eabi/4.3.2/libgcc.a(_divsi3.o)
 .vfp11_veneer  0x0040cab8        0x0 /usr/local/cs97/CodeSourcery/Sourcery_G++_Lite/bin/../lib/gcc/arm-none-eabi/4.3.2/libgcc.a(_dvmd_tls.o)
 .vfp11_veneer  0x0040cab8        0x0 /usr/local/cs97/CodeSourcery/Sourcery_G++_Lite/bin/../lib/gcc/arm-none-eabi/4.3.2/libgcc.a(_aeabi_uldivmod.o)
 .vfp11_veneer  0x0040cab8        0x0 /usr/local/cs97/CodeSourcery/Sourcery_G++_Lite/bin/../lib/gcc/arm-none-eabi/4.3.2/libgcc.a(bpabi.o)
 .vfp11_veneer  0x0040cab8        0x0 /usr/local/cs97/CodeSourcery/Sourcery_G++_Lite/bin/../lib/gcc/arm-none-eabi/4.3.2/libgcc.a(_divdi3.o)
 .vfp11_veneer  0x0040cab8        0x0 /usr/local/cs97/CodeSourcery/Sourcery_G++_Lite/bin/../lib/gcc/arm-none-eabi/4.3.2/libgcc.a(_udivdi3.o)
 .vfp11_veneer  0x0040cab8        0x0 /usr/local/cs97/CodeSourcery/Sourcery_G++_Lite/bin/../lib/gcc/arm-none-eabi/4.3.2/libgcc.a(_clz.o)
 .vfp11_veneer  0x0040cab8        0x0 /usr/local/cs97/CodeSourcery/Sourcery_G++_Lite/bin/../lib/gcc/arm-none-eabi/4.3.2/../../../../arm-none-eabi/lib/libc.a(lib_a-memcmp.o)
 .vfp11_veneer  0x0040cab8        0x0 /usr/local/cs97/CodeSourcery/Sourcery_G++_Lite/bin/../lib/gcc/arm-none-eabi/4.3.2/../../../../arm-none-eabi/lib/libc.a(lib_a-memcpy.o)
 .vfp11_veneer  0x0040cab8        0x0 /usr/local/cs97/CodeSourcery/Sourcery_G++_Lite/bin/../lib/gcc/arm-none-eabi/4.3.2/../../../../arm-none-eabi/lib/libc.a(lib_a-memmove.o)
 .vfp11_veneer  0x0040cab8        0x0 /usr/local/cs97/CodeSourcery/Sourcery_G++_Lite/bin/../lib/gcc/arm-none-eabi/4.3.2/../../../../arm-none-eabi/lib/libc.a(lib_a-memset.o)
 .vfp11_veneer  0x0040cab8        0x0 /usr/local/cs97/CodeSourcery/Sourcery_G++_Lite/bin/../lib/gcc/arm-none-eabi/4.3.2/../../../../arm-none-eabi/lib/libc.a(lib_a-strlen.o)
 .vfp11_veneer  0x0040cab8        0x0 /usr/local/cs97/CodeSourcery/Sourcery_G++_Lite/bin/../lib/gcc/arm-none-eabi/4.3.2/../../../../arm-none-eabi/lib/libc.a(lib_a-strncmp.o)
 *(.v4_bx)
 .v4_bx         0x0040cab8        0x0 unicast-receiver.co
 .v4_bx         0x0040cab8        0x0 obj_redbee-econotag/contiki-mc1322x-main.o
 .v4_bx         0x0040cab8        0x0 obj_redbee-econotag/start.o
 .v4_bx         0x0040cab8        0x0 obj_redbee-econotag/symbols.o
 .v4_bx         0x0040cab8        0x0 contiki-redbee-econotag.a(rimeaddr.o)
 .v4_bx         0x0040cab8        0x0 contiki-redbee-econotag.a(nullmac.o)
 .v4_bx         0x0040cab8        0x0 contiki-redbee-econotag.a(nullrdc.o)
 .v4_bx         0x0040cab8        0x0 contiki-redbee-econotag.a(mac.o)
 .v4_bx         0x0040cab8        0x0 contiki-redbee-econotag.a(framer-802154.o)
 .v4_bx         0x0040cab8        0x0 contiki-redbee-econotag.a(rpl-dag.o)
 .v4_bx         0x0040cab8        0x0 contiki-redbee-econotag.a(rpl-icmp6.o)
 .v4_bx         0x0040cab8        0x0 contiki-redbee-econotag.a(rpl-timers.o)
 .v4_bx         0x0040cab8        0x0 contiki-redbee-econotag.a(rpl-of-etx.o)
 .v4_bx         0x0040cab8        0x0 contiki-redbee-econotag.a(process.o)
 .v4_bx         0x0040cab8        0x0 contiki-redbee-econotag.a(autostart.o)
 .v4_bx         0x0040cab8        0x0 contiki-redbee-econotag.a(memb.o)
 .v4_bx         0x0040cab8        0x0 contiki-redbee-econotag.a(list.o)
 .v4_bx         0x0040cab8        0x0 contiki-redbee-econotag.a(etimer.o)
 .v4_bx         0x0040cab8        0x0 contiki-redbee-econotag.a(ctimer.o)
 .v4_bx         0x0040cab8        0x0 contiki-redbee-econotag.a(stimer.o)
 .v4_bx         0x0040cab8        0x0 contiki-redbee-econotag.a(random.o)
 .v4_bx         0x0040cab8        0x0 contiki-redbee-econotag.a(uip-debug.o)
 .v4_bx         0x0040cab8        0x0 contiki-redbee-econotag.a(packetbuf.o)
 .v4_bx         0x0040cab8        0x0 contiki-redbee-econotag.a(queuebuf.o)
 .v4_bx         0x0040cab8        0x0 contiki-redbee-econotag.a(uip6.o)
 .v4_bx         0x0040cab8        0x0 contiki-redbee-econotag.a(tcpip.o)
 .v4_bx         0x0040cab8        0x0 contiki-redbee-econotag.a(simple-udp.o)
 .v4_bx         0x0040cab8        0x0 contiki-redbee-econotag.a(uip-icmp6.o)
 .v4_bx         0x0040cab8        0x0 contiki-redbee-econotag.a(uip-nd6.o)
 .v4_bx         0x0040cab8        0x0 contiki-redbee-econotag.a(sicslowpan.o)
 .v4_bx         0x0040cab8        0x0 contiki-redbee-econotag.a(neighbor-info.o)
 .v4_bx         0x0040cab8        0x0 contiki-redbee-econotag.a(uip-ds6.o)
 .v4_bx         0x0040cab8        0x0 contiki-redbee-econotag.a(servreg-hack.o)
 .v4_bx         0x0040cab8        0x0 contiki-redbee-econotag.a(clock.o)
 .v4_bx         0x0040cab8        0x0 contiki-redbee-econotag.a(button-sensor.o)
 .v4_bx         0x0040cab8        0x0 contiki-redbee-econotag.a(sensors.o)
 .v4_bx         0x0040cab8        0x0 contiki-redbee-econotag.a(watchdog.o)
 .v4_bx         0x0040cab8        0x0 contiki-redbee-econotag.a(contiki-crm.o)
 .v4_bx         0x0040cab8        0x0 contiki-redbee-econotag.a(contiki-maca.o)
 .v4_bx         0x0040cab8        0x0 contiki-redbee-econotag.a(contiki-misc.o)
 .v4_bx         0x0040cab8        0x0 contiki-redbee-econotag.a(leds.o)
 .v4_bx         0x0040cab8        0x0 contiki-redbee-econotag.a(contiki-uart.o)
 .v4_bx         0x0040cab8        0x0 contiki-redbee-econotag.a(dbg-printf.o)
 .v4_bx         0x0040cab8        0x0 contiki-redbee-econotag.a(strformat.o)
 .v4_bx         0x0040cab8        0x0 contiki-redbee-econotag.a(maca.o)
 .v4_bx         0x0040cab8        0x0 contiki-redbee-econotag.a(nvm.o)
 .v4_bx         0x0040cab8        0x0 contiki-redbee-econotag.a(uart1.o)
 .v4_bx         0x0040cab8        0x0 contiki-redbee-econotag.a(default_lowleve)
 .v4_bx         0x0040cab8        0x0 contiki-redbee-econotag.a(isr.o)
 .v4_bx         0x0040cab8        0x0 contiki-redbee-econotag.a(frame802154.o)
 .v4_bx         0x0040cab8        0x0 contiki-redbee-econotag.a(rpl.o)
 .v4_bx         0x0040cab8        0x0 contiki-redbee-econotag.a(timer.o)
 .v4_bx         0x0040cab8        0x0 contiki-redbee-econotag.a(uip-udp-packet.)
 .v4_bx         0x0040cab8        0x0 contiki-redbee-econotag.a(neighbor-attr.o)
 .v4_bx         0x0040cab8        0x0 contiki-redbee-econotag.a(debug-uart.o)
 .v4_bx         0x0040cab8        0x0 contiki-redbee-econotag.a(leds-arch.o)
 .v4_bx         0x0040cab8        0x0 contiki-redbee-econotag.a(uart2.o)
 .v4_bx         0x0040cab8        0x0 /usr/local/cs97/CodeSourcery/Sourcery_G++_Lite/bin/../lib/gcc/arm-none-eabi/4.3.2/libgcc.a(_udivsi3.o)
 .v4_bx         0x0040cab8        0x0 /usr/local/cs97/CodeSourcery/Sourcery_G++_Lite/bin/../lib/gcc/arm-none-eabi/4.3.2/libgcc.a(_divsi3.o)
 .v4_bx         0x0040cab8        0x0 /usr/local/cs97/CodeSourcery/Sourcery_G++_Lite/bin/../lib/gcc/arm-none-eabi/4.3.2/libgcc.a(_dvmd_tls.o)
 .v4_bx         0x0040cab8        0x0 /usr/local/cs97/CodeSourcery/Sourcery_G++_Lite/bin/../lib/gcc/arm-none-eabi/4.3.2/libgcc.a(_aeabi_uldivmod.o)
 .v4_bx         0x0040cab8        0x0 /usr/local/cs97/CodeSourcery/Sourcery_G++_Lite/bin/../lib/gcc/arm-none-eabi/4.3.2/libgcc.a(bpabi.o)
 .v4_bx         0x0040cab8        0x0 /usr/local/cs97/CodeSourcery/Sourcery_G++_Lite/bin/../lib/gcc/arm-none-eabi/4.3.2/libgcc.a(_divdi3.o)
 .v4_bx         0x0040cab8        0x0 /usr/local/cs97/CodeSourcery/Sourcery_G++_Lite/bin/../lib/gcc/arm-none-eabi/4.3.2/libgcc.a(_udivdi3.o)
 .v4_bx         0x0040cab8        0x0 /usr/local/cs97/CodeSourcery/Sourcery_G++_Lite/bin/../lib/gcc/arm-none-eabi/4.3.2/libgcc.a(_clz.o)
 .v4_bx         0x0040cab8        0x0 /usr/local/cs97/CodeSourcery/Sourcery_G++_Lite/bin/../lib/gcc/arm-none-eabi/4.3.2/../../../../arm-none-eabi/lib/libc.a(lib_a-memcmp.o)
 .v4_bx         0x0040cab8        0x0 /usr/local/cs97/CodeSourcery/Sourcery_G++_Lite/bin/../lib/gcc/arm-none-eabi/4.3.2/../../../../arm-none-eabi/lib/libc.a(lib_a-memcpy.o)
 .v4_bx         0x0040cab8        0x0 /usr/local/cs97/CodeSourcery/Sourcery_G++_Lite/bin/../lib/gcc/arm-none-eabi/4.3.2/../../../../arm-none-eabi/lib/libc.a(lib_a-memmove.o)
 .v4_bx         0x0040cab8        0x0 /usr/local/cs97/CodeSourcery/Sourcery_G++_Lite/bin/../lib/gcc/arm-none-eabi/4.3.2/../../../../arm-none-eabi/lib/libc.a(lib_a-memset.o)
 .v4_bx         0x0040cab8        0x0 /usr/local/cs97/CodeSourcery/Sourcery_G++_Lite/bin/../lib/gcc/arm-none-eabi/4.3.2/../../../../arm-none-eabi/lib/libc.a(lib_a-strlen.o)
 .v4_bx         0x0040cab8        0x0 /usr/local/cs97/CodeSourcery/Sourcery_G++_Lite/bin/../lib/gcc/arm-none-eabi/4.3.2/../../../../arm-none-eabi/lib/libc.a(lib_a-strncmp.o)

.janus_2cc_veneer
                0x0040cab8        0x0
 .janus_2cc_veneer
                0x0040cab8        0x0 unicast-receiver.co
 .janus_2cc_veneer
                0x0040cab8        0x0 obj_redbee-econotag/contiki-mc1322x-main.o
 .janus_2cc_veneer
                0x0040cab8        0x0 obj_redbee-econotag/start.o
 .janus_2cc_veneer
                0x0040cab8        0x0 obj_redbee-econotag/symbols.o
 .janus_2cc_veneer
                0x0040cab8        0x0 contiki-redbee-econotag.a(rimeaddr.o)
 .janus_2cc_veneer
                0x0040cab8        0x0 contiki-redbee-econotag.a(nullmac.o)
 .janus_2cc_veneer
                0x0040cab8        0x0 contiki-redbee-econotag.a(nullrdc.o)
 .janus_2cc_veneer
                0x0040cab8        0x0 contiki-redbee-econotag.a(mac.o)
 .janus_2cc_veneer
                0x0040cab8        0x0 contiki-redbee-econotag.a(framer-802154.o)
 .janus_2cc_veneer
                0x0040cab8        0x0 contiki-redbee-econotag.a(rpl-dag.o)
 .janus_2cc_veneer
                0x0040cab8        0x0 contiki-redbee-econotag.a(rpl-icmp6.o)
 .janus_2cc_veneer
                0x0040cab8        0x0 contiki-redbee-econotag.a(rpl-timers.o)
 .janus_2cc_veneer
                0x0040cab8        0x0 contiki-redbee-econotag.a(rpl-of-etx.o)
 .janus_2cc_veneer
                0x0040cab8        0x0 contiki-redbee-econotag.a(process.o)
 .janus_2cc_veneer
                0x0040cab8        0x0 contiki-redbee-econotag.a(autostart.o)
 .janus_2cc_veneer
                0x0040cab8        0x0 contiki-redbee-econotag.a(memb.o)
 .janus_2cc_veneer
                0x0040cab8        0x0 contiki-redbee-econotag.a(list.o)
 .janus_2cc_veneer
                0x0040cab8        0x0 contiki-redbee-econotag.a(etimer.o)
 .janus_2cc_veneer
                0x0040cab8        0x0 contiki-redbee-econotag.a(ctimer.o)
 .janus_2cc_veneer
                0x0040cab8        0x0 contiki-redbee-econotag.a(stimer.o)
 .janus_2cc_veneer
                0x0040cab8        0x0 contiki-redbee-econotag.a(random.o)
 .janus_2cc_veneer
                0x0040cab8        0x0 contiki-redbee-econotag.a(uip-debug.o)
 .janus_2cc_veneer
                0x0040cab8        0x0 contiki-redbee-econotag.a(packetbuf.o)
 .janus_2cc_veneer
                0x0040cab8        0x0 contiki-redbee-econotag.a(queuebuf.o)
 .janus_2cc_veneer
                0x0040cab8        0x0 contiki-redbee-econotag.a(uip6.o)
 .janus_2cc_veneer
                0x0040cab8        0x0 contiki-redbee-econotag.a(tcpip.o)
 .janus_2cc_veneer
                0x0040cab8        0x0 contiki-redbee-econotag.a(simple-udp.o)
 .janus_2cc_veneer
                0x0040cab8        0x0 contiki-redbee-econotag.a(uip-icmp6.o)
 .janus_2cc_veneer
                0x0040cab8        0x0 contiki-redbee-econotag.a(uip-nd6.o)
 .janus_2cc_veneer
                0x0040cab8        0x0 contiki-redbee-econotag.a(sicslowpan.o)
 .janus_2cc_veneer
                0x0040cab8        0x0 contiki-redbee-econotag.a(neighbor-info.o)
 .janus_2cc_veneer
                0x0040cab8        0x0 contiki-redbee-econotag.a(uip-ds6.o)
 .janus_2cc_veneer
                0x0040cab8        0x0 contiki-redbee-econotag.a(servreg-hack.o)
 .janus_2cc_veneer
                0x0040cab8        0x0 contiki-redbee-econotag.a(clock.o)
 .janus_2cc_veneer
                0x0040cab8        0x0 contiki-redbee-econotag.a(button-sensor.o)
 .janus_2cc_veneer
                0x0040cab8        0x0 contiki-redbee-econotag.a(sensors.o)
 .janus_2cc_veneer
                0x0040cab8        0x0 contiki-redbee-econotag.a(watchdog.o)
 .janus_2cc_veneer
                0x0040cab8        0x0 contiki-redbee-econotag.a(contiki-crm.o)
 .janus_2cc_veneer
                0x0040cab8        0x0 contiki-redbee-econotag.a(contiki-maca.o)
 .janus_2cc_veneer
                0x0040cab8        0x0 contiki-redbee-econotag.a(contiki-misc.o)
 .janus_2cc_veneer
                0x0040cab8        0x0 contiki-redbee-econotag.a(leds.o)
 .janus_2cc_veneer
                0x0040cab8        0x0 contiki-redbee-econotag.a(contiki-uart.o)
 .janus_2cc_veneer
                0x0040cab8        0x0 contiki-redbee-econotag.a(dbg-printf.o)
 .janus_2cc_veneer
                0x0040cab8        0x0 contiki-redbee-econotag.a(strformat.o)
 .janus_2cc_veneer
                0x0040cab8        0x0 contiki-redbee-econotag.a(maca.o)
 .janus_2cc_veneer
                0x0040cab8        0x0 contiki-redbee-econotag.a(nvm.o)
 .janus_2cc_veneer
                0x0040cab8        0x0 contiki-redbee-econotag.a(uart1.o)
 .janus_2cc_veneer
                0x0040cab8        0x0 contiki-redbee-econotag.a(default_lowleve)
 .janus_2cc_veneer
                0x0040cab8        0x0 contiki-redbee-econotag.a(isr.o)
 .janus_2cc_veneer
                0x0040cab8        0x0 contiki-redbee-econotag.a(frame802154.o)
 .janus_2cc_veneer
                0x0040cab8        0x0 contiki-redbee-econotag.a(rpl.o)
 .janus_2cc_veneer
                0x0040cab8        0x0 contiki-redbee-econotag.a(timer.o)
 .janus_2cc_veneer
                0x0040cab8        0x0 contiki-redbee-econotag.a(uip-udp-packet.)
 .janus_2cc_veneer
                0x0040cab8        0x0 contiki-redbee-econotag.a(neighbor-attr.o)
 .janus_2cc_veneer
                0x0040cab8        0x0 contiki-redbee-econotag.a(debug-uart.o)
 .janus_2cc_veneer
                0x0040cab8        0x0 contiki-redbee-econotag.a(leds-arch.o)
 .janus_2cc_veneer
                0x0040cab8        0x0 contiki-redbee-econotag.a(uart2.o)
 .janus_2cc_veneer
                0x0040cab8        0x0 /usr/local/cs97/CodeSourcery/Sourcery_G++_Lite/bin/../lib/gcc/arm-none-eabi/4.3.2/libgcc.a(_udivsi3.o)
 .janus_2cc_veneer
                0x0040cab8        0x0 /usr/local/cs97/CodeSourcery/Sourcery_G++_Lite/bin/../lib/gcc/arm-none-eabi/4.3.2/libgcc.a(_divsi3.o)
 .janus_2cc_veneer
                0x0040cab8        0x0 /usr/local/cs97/CodeSourcery/Sourcery_G++_Lite/bin/../lib/gcc/arm-none-eabi/4.3.2/libgcc.a(_dvmd_tls.o)
 .janus_2cc_veneer
                0x0040cab8        0x0 /usr/local/cs97/CodeSourcery/Sourcery_G++_Lite/bin/../lib/gcc/arm-none-eabi/4.3.2/libgcc.a(_aeabi_uldivmod.o)
 .janus_2cc_veneer
                0x0040cab8        0x0 /usr/local/cs97/CodeSourcery/Sourcery_G++_Lite/bin/../lib/gcc/arm-none-eabi/4.3.2/libgcc.a(bpabi.o)
 .janus_2cc_veneer
                0x0040cab8        0x0 /usr/local/cs97/CodeSourcery/Sourcery_G++_Lite/bin/../lib/gcc/arm-none-eabi/4.3.2/libgcc.a(_divdi3.o)
 .janus_2cc_veneer
                0x0040cab8        0x0 /usr/local/cs97/CodeSourcery/Sourcery_G++_Lite/bin/../lib/gcc/arm-none-eabi/4.3.2/libgcc.a(_udivdi3.o)
 .janus_2cc_veneer
                0x0040cab8        0x0 /usr/local/cs97/CodeSourcery/Sourcery_G++_Lite/bin/../lib/gcc/arm-none-eabi/4.3.2/libgcc.a(_clz.o)
 .janus_2cc_veneer
                0x0040cab8        0x0 /usr/local/cs97/CodeSourcery/Sourcery_G++_Lite/bin/../lib/gcc/arm-none-eabi/4.3.2/../../../../arm-none-eabi/lib/libc.a(lib_a-memcmp.o)
 .janus_2cc_veneer
                0x0040cab8        0x0 /usr/local/cs97/CodeSourcery/Sourcery_G++_Lite/bin/../lib/gcc/arm-none-eabi/4.3.2/../../../../arm-none-eabi/lib/libc.a(lib_a-memcpy.o)
 .janus_2cc_veneer
                0x0040cab8        0x0 /usr/local/cs97/CodeSourcery/Sourcery_G++_Lite/bin/../lib/gcc/arm-none-eabi/4.3.2/../../../../arm-none-eabi/lib/libc.a(lib_a-memmove.o)
 .janus_2cc_veneer
                0x0040cab8        0x0 /usr/local/cs97/CodeSourcery/Sourcery_G++_Lite/bin/../lib/gcc/arm-none-eabi/4.3.2/../../../../arm-none-eabi/lib/libc.a(lib_a-memset.o)
 .janus_2cc_veneer
                0x0040cab8        0x0 /usr/local/cs97/CodeSourcery/Sourcery_G++_Lite/bin/../lib/gcc/arm-none-eabi/4.3.2/../../../../arm-none-eabi/lib/libc.a(lib_a-strlen.o)
 .janus_2cc_veneer
                0x0040cab8        0x0 /usr/local/cs97/CodeSourcery/Sourcery_G++_Lite/bin/../lib/gcc/arm-none-eabi/4.3.2/../../../../arm-none-eabi/lib/libc.a(lib_a-strncmp.o)

.interp
 *(.interp)

.note.gnu.build-id
 *(.note.gnu.build-id)

.hash
 *(.hash)

.gnu.hash
 *(.gnu.hash)

.dynsym
 *(.dynsym)

.dynstr
 *(.dynstr)

.gnu.version
 *(.gnu.version)

.gnu.version_d
 *(.gnu.version_d)

.gnu.version_r
 *(.gnu.version_r)

.rel.dyn
 *(.rel.init)
 *(.rel.text .rel.text.* .rel.gnu.linkonce.t.*)
 *(.rel.fini)
 *(.rel.rodata .rel.rodata.* .rel.gnu.linkonce.r.*)
 *(.rel.data.rel.ro* .rel.gnu.linkonce.d.rel.ro.*)
 *(.rel.data .rel.data.* .rel.gnu.linkonce.d.*)
 *(.rel.tdata .rel.tdata.* .rel.gnu.linkonce.td.*)
 *(.rel.tbss .rel.tbss.* .rel.gnu.linkonce.tb.*)
 *(.rel.ctors)
 *(.rel.dtors)
 *(.rel.got)
 *(.rel.bss .rel.bss.* .rel.gnu.linkonce.b.*)

.rela.dyn
 *(.rela.init)
 *(.rela.text .rela.text.* .rela.gnu.linkonce.t.*)
 *(.rela.fini)
 *(.rela.rodata .rela.rodata.* .rela.gnu.linkonce.r.*)
 *(.rela.data .rela.data.* .rela.gnu.linkonce.d.*)
 *(.rela.tdata .rela.tdata.* .rela.gnu.linkonce.td.*)
 *(.rela.tbss .rela.tbss.* .rela.gnu.linkonce.tb.*)
 *(.rela.ctors)
 *(.rela.dtors)
 *(.rela.got)
 *(.rela.bss .rela.bss.* .rela.gnu.linkonce.b.*)

.rel.plt
 *(.rel.plt)

.rela.plt
 *(.rela.plt)

.init
 *(.init)

.plt
 *(.plt)

.fini
 *(.fini)
                0x0040cab8                PROVIDE (__etext, .)
                0x0040cab8                PROVIDE (_etext, .)
                0x0040cab8                PROVIDE (etext, .)

.rodata         0x0040cab8      0x924
 *(.rodata .rodata.* .gnu.linkonce.r.*)
 .rodata        0x0040cab8        0x8 unicast-receiver.co
                0x0040cab8                autostart_processes
 .rodata.str1.1
                0x0040cac0       0x75 unicast-receiver.co
                                 0x77 (size before relaxing)
 .rodata        0x0040cb35        0x8 obj_redbee-econotag/contiki-mc1322x-main.o
                0x0040cb35                addr_ff
 .rodata.str1.1
                0x0040cb3d       0xc3 obj_redbee-econotag/contiki-mc1322x-main.o
                                 0xc5 (size before relaxing)
 .rodata        0x0040cc00        0xc obj_redbee-econotag/symbols.o
                0x0040cc04                symbols
                0x0040cc00                symbols_nelts
 .rodata        0x0040cc0c        0x8 contiki-redbee-econotag.a(rimeaddr.o)
                0x0040cc0c                rimeaddr_null
 .rodata        0x0040cc14       0x1c contiki-redbee-econotag.a(nullmac.o)
                0x0040cc14                nullmac_driver
 .rodata.str1.1
                0x0040cc30        0x8 contiki-redbee-econotag.a(nullmac.o)
 .rodata        0x0040cc38       0x1c contiki-redbee-econotag.a(nullrdc.o)
                0x0040cc38                nullrdc_driver
 .rodata.str1.1
                0x0040cc54        0x8 contiki-redbee-econotag.a(nullrdc.o)
 .rodata        0x0040cc5c        0x8 contiki-redbee-econotag.a(framer-802154.o)
                0x0040cc5c                framer_802154
 .rodata.str1.1
                0x0040cc64        0xc contiki-redbee-econotag.a(etimer.o)
 .rodata.str1.1
                0x0040cc70        0xf contiki-redbee-econotag.a(ctimer.o)
 .rodata.str1.1
                0x0040cc7f        0xb contiki-redbee-econotag.a(uip-debug.o)
                                  0xd (size before relaxing)
 *fill*         0x0040cc8a        0x2 00
 .rodata        0x0040cc8c        0x4 contiki-redbee-econotag.a(packetbuf.o)
 .rodata        0x0040cc90       0x40 contiki-redbee-econotag.a(uip6.o)
 .rodata.str1.1
                0x0040ccd0        0xd contiki-redbee-econotag.a(tcpip.o)
 .rodata.str1.1
                0x0040ccdd       0x13 contiki-redbee-econotag.a(simple-udp.o)
 .rodata        0x0040ccf0       0x20 contiki-redbee-econotag.a(sicslowpan.o)
                0x0040ccfa                unc_llconf
                0x0040ccf4                unc_ctxconf
                0x0040ccf8                llprefix
                0x0040cd00                unc_mxconf
                0x0040cd04                sicslowpan_driver
 .rodata.str1.1
                0x0040cd10        0xb contiki-redbee-econotag.a(sicslowpan.o)
 .rodata.str1.1
                0x0040cd1b       0x9a contiki-redbee-econotag.a(servreg-hack.o)
 *fill*         0x0040cdb5        0x3 00
 .rodata        0x0040cdb8       0x10 contiki-redbee-econotag.a(button-sensor.o)
                0x0040cdb8                button_sensor
 .rodata.str1.1
                0x0040cdc8        0x7 contiki-redbee-econotag.a(button-sensor.o)
 .rodata.str1.1
                0x0040cdcf        0x8 contiki-redbee-econotag.a(sensors.o)
 .rodata.str1.1
                0x0040cdd7       0xd1 contiki-redbee-econotag.a(contiki-crm.o)
 .rodata        0x0040cea8       0x28 contiki-redbee-econotag.a(contiki-maca.o)
                0x0040cea8                contiki_maca_driver
 .rodata.str1.1
                0x0040ced0        0xd contiki-redbee-econotag.a(contiki-maca.o)
 .rodata        0x0040cedd       0x20 contiki-redbee-econotag.a(strformat.o)
 .rodata.str1.1
                0x0040cefd       0x35 contiki-redbee-econotag.a(strformat.o)
                                 0x37 (size before relaxing)
 *fill*         0x0040cf32        0x2 00
 .rodata        0x0040cf34      0x338 contiki-redbee-econotag.a(maca.o)
                0x0040d104                data_cal5
                0x0040d054                VCODivI
                0x0040cfbc                PAVAL
                0x0040d064                VCODivF
                0x0040d0e4                data_cal3_seq2
                0x0040d0ec                addr_cal3_seq3
                0x0040d0c4                addr_cal3_seq1
                0x0040d1c0                data_reg_rep
                0x0040d0b4                addr_seq2
                0x0040d0f0                data_cal3_seq3
                0x0040d0f4                addr_cal5
                0x0040d0ac                data_seq1
                0x0040d0d0                data_cal3_seq1
                0x0040d0bc                data_seq2
                0x0040cf70                PSMVAL
                0x0040d0dc                addr_cal3_seq2
                0x0040d008                AIMVAL
                0x0040d114                addr_reg_rep
                0x0040d0a4                addr_seq1
 .rodata.str1.1
                0x0040d26c       0x70 contiki-redbee-econotag.a(maca.o)
                                 0x73 (size before relaxing)
 .rodata        0x0040d2dc      0x100 /usr/local/cs97/CodeSourcery/Sourcery_G++_Lite/bin/../lib/gcc/arm-none-eabi/4.3.2/libgcc.a(_clz.o)
                0x0040d2dc                __clz_tab

.ARM.extab      0x0040d3dc        0x0
 .ARM.extab     0x0040d3dc        0x0 /usr/local/cs97/CodeSourcery/Sourcery_G++_Lite/bin/../lib/gcc/arm-none-eabi/4.3.2/libgcc.a(_divdi3.o)
 .ARM.extab     0x0040d3dc        0x0 /usr/local/cs97/CodeSourcery/Sourcery_G++_Lite/bin/../lib/gcc/arm-none-eabi/4.3.2/libgcc.a(_udivdi3.o)

.ARM.exidx      0x0040d3dc       0x10
 .ARM.exidx     0x0040d3dc        0x8 /usr/local/cs97/CodeSourcery/Sourcery_G++_Lite/bin/../lib/gcc/arm-none-eabi/4.3.2/libgcc.a(_divdi3.o)
 .ARM.exidx     0x0040d3e4        0x8 /usr/local/cs97/CodeSourcery/Sourcery_G++_Lite/bin/../lib/gcc/arm-none-eabi/4.3.2/libgcc.a(_udivdi3.o)

.rodata1
 *(.rodata1)

.eh_frame_hdr
 *(.eh_frame_hdr)

.eh_frame
 *(.eh_frame)

.gcc_except_table
 *(.gcc_except_table .gcc_except_table.*)
                0x0040d3ec                . = ALIGN (0x4)
                0x0040d3ec                . = (0x4 DATA_SEGMENT_ALIGN 0x4)

.eh_frame
 *(.eh_frame)

.gcc_except_table
 *(.gcc_except_table .gcc_except_table.*)

.tdata
 *(.tdata .tdata.* .gnu.linkonce.td.*)

.tbss
 *(.tbss .tbss.* .gnu.linkonce.tb.*)
 *(.tcommon)

.preinit_array  0x0040d3ec        0x0
                0x0040d3ec                PROVIDE (__preinit_array_start, .)
 *(.preinit_array)
                0x0040d3ec                PROVIDE (__preinit_array_end, .)

.init_array     0x0040d3ec        0x0
                0x0040d3ec                PROVIDE (__init_array_start, .)
 *(SORT(.init_array.*))
 *(.init_array)
                0x0040d3ec                PROVIDE (__init_array_end, .)

.fini_array     0x0040d3ec        0x0
                0x0040d3ec                PROVIDE (__fini_array_start, .)
 *(.fini_array)
 *(SORT(.fini_array.*))
                0x0040d3ec                PROVIDE (__fini_array_end, .)

.ctors
 *crtbegin.o(.ctors)
 *crtbegin?.o(.ctors)
 *(EXCLUDE_FILE(*crtend?.o *crtend.o) .ctors)
 *(SORT(.ctors.*))
 *(.ctors)

.dtors
 *crtbegin.o(.dtors)
 *crtbegin?.o(.dtors)
 *(EXCLUDE_FILE(*crtend?.o *crtend.o) .dtors)
 *(SORT(.dtors.*))
 *(.dtors)

.jcr
 *(.jcr)

.data.rel.ro
 *(.data.rel.ro.local* .gnu.linkonce.d.rel.ro.local.*)
 *(.data.rel.ro* .gnu.linkonce.d.rel.ro.*)

.dynamic
 *(.dynamic)
                0x0040d3ec                . = (. DATA_SEGMENT_RELRO_END 0x0)

.got
 *(.got.plt)
 *(.got)

.data           0x0040d3ec      0x130
                0x0040d3ec                __data_start = .
 *(.data .data.* .gnu.linkonce.d.*)
 .data          0x0040d3ec       0x10 unicast-receiver.co
                0x0040d3ec                unicast_receiver_process
 .data          0x0040d3fc        0x8 obj_redbee-econotag/contiki-mc1322x-main.o
                0x0040d3fc                sensors
 .data          0x0040d404        0x0 obj_redbee-econotag/start.o
 .data          0x0040d404        0x0 obj_redbee-econotag/symbols.o
 .data          0x0040d404        0x0 contiki-redbee-econotag.a(rimeaddr.o)
 .data          0x0040d404        0x0 contiki-redbee-econotag.a(nullmac.o)
 .data          0x0040d404        0x0 contiki-redbee-econotag.a(nullrdc.o)
 .data          0x0040d404        0x0 contiki-redbee-econotag.a(mac.o)
 .data          0x0040d404        0x0 contiki-redbee-econotag.a(framer-802154.o)
 .data          0x0040d404        0xc contiki-redbee-econotag.a(rpl-dag.o)
 .data          0x0040d410        0x0 contiki-redbee-econotag.a(rpl-icmp6.o)
 .data          0x0040d410        0x0 contiki-redbee-econotag.a(rpl-timers.o)
 .data          0x0040d410       0x18 contiki-redbee-econotag.a(rpl-of-etx.o)
                0x0040d410                rpl_of_etx
 .data          0x0040d428        0x0 contiki-redbee-econotag.a(process.o)
 .data          0x0040d428        0x0 contiki-redbee-econotag.a(autostart.o)
 .data          0x0040d428        0x0 contiki-redbee-econotag.a(memb.o)
 .data          0x0040d428        0x0 contiki-redbee-econotag.a(list.o)
 .data          0x0040d428       0x10 contiki-redbee-econotag.a(etimer.o)
                0x0040d428                etimer_process
 .data          0x0040d438       0x10 contiki-redbee-econotag.a(ctimer.o)
                0x0040d438                ctimer_process
 .data          0x0040d448        0x0 contiki-redbee-econotag.a(stimer.o)
 .data          0x0040d448        0x0 contiki-redbee-econotag.a(random.o)
 .data          0x0040d448        0x0 contiki-redbee-econotag.a(uip-debug.o)
 .data          0x0040d448        0x0 contiki-redbee-econotag.a(packetbuf.o)
 .data          0x0040d448       0x18 contiki-redbee-econotag.a(queuebuf.o)
 .data          0x0040d460        0x0 contiki-redbee-econotag.a(uip6.o)
 .data          0x0040d460       0x10 contiki-redbee-econotag.a(tcpip.o)
                0x0040d460                tcpip_process
 .data          0x0040d470       0x10 contiki-redbee-econotag.a(simple-udp.o)
                0x0040d470                simple_udp_process
 .data          0x0040d480        0x0 contiki-redbee-econotag.a(uip-icmp6.o)
 .data          0x0040d480        0x0 contiki-redbee-econotag.a(uip-nd6.o)
 .data          0x0040d480        0x0 contiki-redbee-econotag.a(sicslowpan.o)
 .data          0x0040d480       0x10 contiki-redbee-econotag.a(neighbor-info.o)
 .data          0x0040d490        0x0 contiki-redbee-econotag.a(uip-ds6.o)
 .data          0x0040d490       0x1c contiki-redbee-econotag.a(servreg-hack.o)
                0x0040d49c                servreg_hack_process
 .data          0x0040d4ac        0x0 contiki-redbee-econotag.a(clock.o)
 .data          0x0040d4ac        0x0 contiki-redbee-econotag.a(button-sensor.o)
 .data          0x0040d4ac       0x10 contiki-redbee-econotag.a(sensors.o)
                0x0040d4ac                sensors_process
 .data          0x0040d4bc        0x0 contiki-redbee-econotag.a(watchdog.o)
 .data          0x0040d4bc        0x0 contiki-redbee-econotag.a(contiki-crm.o)
 .data          0x0040d4bc       0x10 contiki-redbee-econotag.a(contiki-maca.o)
                0x0040d4bc                contiki_maca_process
 .data          0x0040d4cc        0x0 contiki-redbee-econotag.a(contiki-misc.o)
 .data          0x0040d4cc        0x0 contiki-redbee-econotag.a(leds.o)
 .data          0x0040d4cc        0x0 contiki-redbee-econotag.a(contiki-uart.o)
 .data          0x0040d4cc        0x8 contiki-redbee-econotag.a(dbg-printf.o)
 .data          0x0040d4d4        0x0 contiki-redbee-econotag.a(strformat.o)
 .data          0x0040d4d4       0x18 contiki-redbee-econotag.a(maca.o)
                0x0040d4e8                get_lqi
                0x0040d4d5                ctov
                0x0040d4d4                prm_mode
 .data          0x0040d4ec       0x14 contiki-redbee-econotag.a(nvm.o)
                0x0040d4f8                nvm_erase
                0x0040d4fc                nvm_setsvar
                0x0040d4f0                nvm_read
                0x0040d4f4                nvm_write
                0x0040d4ec                nvm_detect
 .data          0x0040d500        0x0 contiki-redbee-econotag.a(uart1.o)
 .data          0x0040d500        0x0 contiki-redbee-econotag.a(default_lowleve)
 .data          0x0040d500       0x10 contiki-redbee-econotag.a(isr.o)
 .data          0x0040d510        0x0 contiki-redbee-econotag.a(frame802154.o)
 .data          0x0040d510        0x0 contiki-redbee-econotag.a(rpl.o)
 .data          0x0040d510        0x0 contiki-redbee-econotag.a(timer.o)
 .data          0x0040d510        0x0 contiki-redbee-econotag.a(uip-udp-packet.)
 .data          0x0040d510        0xc contiki-redbee-econotag.a(neighbor-attr.o)
 .data          0x0040d51c        0x0 contiki-redbee-econotag.a(debug-uart.o)
 .data          0x0040d51c        0x0 contiki-redbee-econotag.a(leds-arch.o)
 .data          0x0040d51c        0x0 contiki-redbee-econotag.a(uart2.o)
 .data          0x0040d51c        0x0 /usr/local/cs97/CodeSourcery/Sourcery_G++_Lite/bin/../lib/gcc/arm-none-eabi/4.3.2/libgcc.a(_udivsi3.o)
 .data          0x0040d51c        0x0 /usr/local/cs97/CodeSourcery/Sourcery_G++_Lite/bin/../lib/gcc/arm-none-eabi/4.3.2/libgcc.a(_divsi3.o)
 .data          0x0040d51c        0x0 /usr/local/cs97/CodeSourcery/Sourcery_G++_Lite/bin/../lib/gcc/arm-none-eabi/4.3.2/libgcc.a(_dvmd_tls.o)
 .data          0x0040d51c        0x0 /usr/local/cs97/CodeSourcery/Sourcery_G++_Lite/bin/../lib/gcc/arm-none-eabi/4.3.2/libgcc.a(_aeabi_uldivmod.o)
 .data          0x0040d51c        0x0 /usr/local/cs97/CodeSourcery/Sourcery_G++_Lite/bin/../lib/gcc/arm-none-eabi/4.3.2/libgcc.a(bpabi.o)
 .data          0x0040d51c        0x0 /usr/local/cs97/CodeSourcery/Sourcery_G++_Lite/bin/../lib/gcc/arm-none-eabi/4.3.2/libgcc.a(_divdi3.o)
 .data          0x0040d51c        0x0 /usr/local/cs97/CodeSourcery/Sourcery_G++_Lite/bin/../lib/gcc/arm-none-eabi/4.3.2/libgcc.a(_udivdi3.o)
 .data          0x0040d51c        0x0 /usr/local/cs97/CodeSourcery/Sourcery_G++_Lite/bin/../lib/gcc/arm-none-eabi/4.3.2/libgcc.a(_clz.o)
 .data          0x0040d51c        0x0 /usr/local/cs97/CodeSourcery/Sourcery_G++_Lite/bin/../lib/gcc/arm-none-eabi/4.3.2/../../../../arm-none-eabi/lib/libc.a(lib_a-memcmp.o)
 .data          0x0040d51c        0x0 /usr/local/cs97/CodeSourcery/Sourcery_G++_Lite/bin/../lib/gcc/arm-none-eabi/4.3.2/../../../../arm-none-eabi/lib/libc.a(lib_a-memcpy.o)
 .data          0x0040d51c        0x0 /usr/local/cs97/CodeSourcery/Sourcery_G++_Lite/bin/../lib/gcc/arm-none-eabi/4.3.2/../../../../arm-none-eabi/lib/libc.a(lib_a-memmove.o)
 .data          0x0040d51c        0x0 /usr/local/cs97/CodeSourcery/Sourcery_G++_Lite/bin/../lib/gcc/arm-none-eabi/4.3.2/../../../../arm-none-eabi/lib/libc.a(lib_a-memset.o)
 .data          0x0040d51c        0x0 /usr/local/cs97/CodeSourcery/Sourcery_G++_Lite/bin/../lib/gcc/arm-none-eabi/4.3.2/../../../../arm-none-eabi/lib/libc.a(lib_a-strlen.o)
 .data          0x0040d51c        0x0 /usr/local/cs97/CodeSourcery/Sourcery_G++_Lite/bin/../lib/gcc/arm-none-eabi/4.3.2/../../../../arm-none-eabi/lib/libc.a(lib_a-strncmp.o)

.data1
 *(.data1)
                0x0040d51c                _edata = .
                0x0040d51c                PROVIDE (edata, .)

.stack          0x0040d51c      0x720
                0x0040d51c                __stack_start__ = .
                0x0040d61c                . = (. + IRQ_STACK_SIZE)
 *fill*         0x0040d51c      0x100 00
                0x0040d61c                . = ALIGN (0x4)
                0x0040d61c                __irq_stack_top__ = .
                0x0040d71c                . = (. + FIQ_STACK_SIZE)
 *fill*         0x0040d61c      0x100 00
                0x0040d71c                . = ALIGN (0x4)
                0x0040d71c                __fiq_stack_top__ = .
                0x0040d81c                . = (. + SVC_STACK_SIZE)
 *fill*         0x0040d71c      0x100 00
                0x0040d81c                . = ALIGN (0x4)
                0x0040d81c                __svc_stack_top__ = .
                0x0040d82c                . = (. + ABT_STACK_SIZE)
 *fill*         0x0040d81c       0x10 00
                0x0040d82c                . = ALIGN (0x4)
                0x0040d82c                __abt_stack_top__ = .
                0x0040d83c                . = (. + UND_STACK_SIZE)
 *fill*         0x0040d82c       0x10 00
                0x0040d83c                . = ALIGN (0x4)
                0x0040d83c                __und_stack_top__ = .
                0x0040dc3c                . = (. + SYS_STACK_SIZE)
 *fill*         0x0040d83c      0x400 00
                0x0040dc3c                . = ALIGN (0x4)
                0x0040dc3c                __sys_stack_top__ = .
                0x0040dc3c                __stack_end__ = .
                0x0040dc3c                __bss_start = .
                0x0040dc3c                __bss_start__ = .

.bss            0x0040dc3c     0x53ec
 *(.dynbss)
 *(.bss .bss.* .gnu.linkonce.b.*)
 .bss           0x0040dc3c       0x34 unicast-receiver.co
 .bss           0x0040dc70        0x2 obj_redbee-econotag/contiki-mc1322x-main.o
                0x0040dc70                sensors_flags
 .bss           0x0040dc72        0x0 obj_redbee-econotag/start.o
 .bss           0x0040dc72        0x0 obj_redbee-econotag/symbols.o
 .bss           0x0040dc72        0x8 contiki-redbee-econotag.a(rimeaddr.o)
                0x0040dc72                rimeaddr_node_addr
 .bss           0x0040dc7a        0x0 contiki-redbee-econotag.a(nullmac.o)
 .bss           0x0040dc7a       0x90 contiki-redbee-econotag.a(nullrdc.o)
 .bss           0x0040dd0a        0x0 contiki-redbee-econotag.a(mac.o)
 .bss           0x0040dd0a        0x2 contiki-redbee-econotag.a(framer-802154.o)
 .bss           0x0040dd0c      0x290 contiki-redbee-econotag.a(rpl-dag.o)
 .bss           0x0040df9c        0x1 contiki-redbee-econotag.a(rpl-icmp6.o)
 *fill*         0x0040df9d        0x3 00
 .bss           0x0040dfa0       0x28 contiki-redbee-econotag.a(rpl-timers.o)
 .bss           0x0040dfc8        0x0 contiki-redbee-econotag.a(rpl-of-etx.o)
 .bss           0x0040dfc8       0x80 contiki-redbee-econotag.a(process.o)
                0x0040dfcc                process_list
                0x0040dfcb                process_maxevents
                0x0040dfd0                process_current
 .bss           0x0040e048        0x0 contiki-redbee-econotag.a(autostart.o)
 .bss           0x0040e048        0x0 contiki-redbee-econotag.a(memb.o)
 .bss           0x0040e048        0x0 contiki-redbee-econotag.a(list.o)
 .bss           0x0040e048        0x8 contiki-redbee-econotag.a(etimer.o)
 .bss           0x0040e050        0x8 contiki-redbee-econotag.a(ctimer.o)
 .bss           0x0040e058        0x0 contiki-redbee-econotag.a(stimer.o)
 .bss           0x0040e058        0x0 contiki-redbee-econotag.a(random.o)
 .bss           0x0040e058        0x0 contiki-redbee-econotag.a(uip-debug.o)
 .bss           0x0040e058      0x110 contiki-redbee-econotag.a(packetbuf.o)
                0x0040e094                packetbuf_addrs
                0x0040e064                packetbuf_attrs
 .bss           0x0040e168      0xdac contiki-redbee-econotag.a(queuebuf.o)
 .bss           0x0040ef14      0x7a4 contiki-redbee-econotag.a(uip6.o)
                0x0040f51e                uip_len
                0x0040f510                uip_sappdata
                0x0040ef14                uip_acc32
                0x0040f6af                uip_lladdr
                0x0040eff8                uip_aligned_buf
                0x0040f51c                uip_flags
                0x0040f524                uip_next_hdr
                0x0040f520                uip_udp_conn
                0x0040f518                uip_appdata
                0x0040ef2c                uip_conn
                0x0040ef34                uip_conns
                0x0040f528                uip_ext_bitmap
                0x0040ef1a                uip_listenports
                0x0040f50c                uip_ext_len
                0x0040f516                uip_ext_opt_offset
                0x0040f514                uip_slen
                0x0040f52c                uip_udp_conns
 .bss           0x0040f6b8       0x64 contiki-redbee-econotag.a(tcpip.o)
                0x0040f715                tcpip_event
 .bss           0x0040f71c      0x515 contiki-redbee-econotag.a(simple-udp.o)
 *fill*         0x0040fc31        0x1 00
 .bss           0x0040fc32       0x10 contiki-redbee-econotag.a(uip-icmp6.o)
 *fill*         0x0040fc42        0x2 00
 .bss           0x0040fc44       0x14 contiki-redbee-econotag.a(uip-nd6.o)
 .bss           0x0040fc58      0x55c contiki-redbee-econotag.a(sicslowpan.o)
                0x004101ac                sicslowpan_mac
                0x0040fc86                frag_sender
 .bss           0x004101b4       0x10 contiki-redbee-econotag.a(neighbor-info.o)
 .bss           0x004101c4      0xe34 contiki-redbee-econotag.a(uip-ds6.o)
                0x00410ff0                uip_ds6_timer_ra
                0x004101c8                uip_ds6_if
                0x00410904                uip_ds6_prefix_list
                0x00410fe0                uip_ds6_timer_periodic
                0x0041097c                uip_ds6_defrt_list
                0x004109c0                uip_ds6_nbr_cache
                0x004102e8                uip_ds6_routing_table
 .bss           0x00410ff8      0x244 contiki-redbee-econotag.a(servreg-hack.o)
 .bss           0x0041123c        0x8 contiki-redbee-econotag.a(clock.o)
                0x00411240                seconds
 .bss           0x00411244        0x8 contiki-redbee-econotag.a(button-sensor.o)
 .bss           0x0041124c        0xc contiki-redbee-econotag.a(sensors.o)
                0x0041124d                sensors_event
 .bss           0x00411258        0x0 contiki-redbee-econotag.a(watchdog.o)
 .bss           0x00411258        0x8 contiki-redbee-econotag.a(contiki-crm.o)
                0x00411258                cal_rtc_secs
 .bss           0x00411260       0x98 contiki-redbee-econotag.a(contiki-maca.o)
 .bss           0x004112f8        0x4 contiki-redbee-econotag.a(contiki-misc.o)
 .bss           0x004112fc        0x2 contiki-redbee-econotag.a(leds.o)
 *fill*         0x004112fe        0x2 00
 .bss           0x00411300        0x4 contiki-redbee-econotag.a(contiki-uart.o)
                0x00411300                uart1_input_handler
 .bss           0x00411304        0x0 contiki-redbee-econotag.a(dbg-printf.o)
 .bss           0x00411304        0x0 contiki-redbee-econotag.a(strformat.o)
 .bss           0x00411304     0x134c contiki-redbee-econotag.a(maca.o)
                0x00412624                fcs_mode
                0x00412648                maca_entry
                0x0041262c                tx_head
                0x00412628                rx_head
 .bss           0x00412650        0x0 contiki-redbee-econotag.a(nvm.o)
 .bss           0x00412650      0x470 contiki-redbee-econotag.a(uart1.o)
                0x00412654                u1_rx_head
                0x00412658                u1_rx_buf
                0x004126b8                u1_tx_head
                0x004126c0                u1_tx_buf
                0x004126bc                u1_tx_tail
                0x00412650                u1_rx_tail
 .bss           0x00412ac0        0x0 contiki-redbee-econotag.a(default_lowleve)
 .bss           0x00412ac0        0x0 contiki-redbee-econotag.a(isr.o)
 .bss           0x00412ac0        0x0 contiki-redbee-econotag.a(frame802154.o)
 .bss           0x00412ac0        0x0 contiki-redbee-econotag.a(rpl.o)
 .bss           0x00412ac0        0x0 contiki-redbee-econotag.a(timer.o)
 .bss           0x00412ac0        0x0 contiki-redbee-econotag.a(uip-udp-packet.)
 .bss           0x00412ac0       0xf8 contiki-redbee-econotag.a(neighbor-attr.o)
 .bss           0x00412bb8        0x0 contiki-redbee-econotag.a(debug-uart.o)
 .bss           0x00412bb8        0x0 contiki-redbee-econotag.a(leds-arch.o)
 .bss           0x00412bb8      0x470 contiki-redbee-econotag.a(uart2.o)
                0x00412c28                u2_tx_buf
                0x00412c24                u2_tx_tail
                0x00412c20                u2_tx_head
                0x00412bbc                u2_rx_head
                0x00412bc0                u2_rx_buf
                0x00412bb8                u2_rx_tail
 .bss           0x00413028        0x0 /usr/local/cs97/CodeSourcery/Sourcery_G++_Lite/bin/../lib/gcc/arm-none-eabi/4.3.2/libgcc.a(_udivsi3.o)
 .bss           0x00413028        0x0 /usr/local/cs97/CodeSourcery/Sourcery_G++_Lite/bin/../lib/gcc/arm-none-eabi/4.3.2/libgcc.a(_divsi3.o)
 .bss           0x00413028        0x0 /usr/local/cs97/CodeSourcery/Sourcery_G++_Lite/bin/../lib/gcc/arm-none-eabi/4.3.2/libgcc.a(_dvmd_tls.o)
 .bss           0x00413028        0x0 /usr/local/cs97/CodeSourcery/Sourcery_G++_Lite/bin/../lib/gcc/arm-none-eabi/4.3.2/libgcc.a(_aeabi_uldivmod.o)
 .bss           0x00413028        0x0 /usr/local/cs97/CodeSourcery/Sourcery_G++_Lite/bin/../lib/gcc/arm-none-eabi/4.3.2/libgcc.a(bpabi.o)
 .bss           0x00413028        0x0 /usr/local/cs97/CodeSourcery/Sourcery_G++_Lite/bin/../lib/gcc/arm-none-eabi/4.3.2/libgcc.a(_divdi3.o)
 .bss           0x00413028        0x0 /usr/local/cs97/CodeSourcery/Sourcery_G++_Lite/bin/../lib/gcc/arm-none-eabi/4.3.2/libgcc.a(_udivdi3.o)
 .bss           0x00413028        0x0 /usr/local/cs97/CodeSourcery/Sourcery_G++_Lite/bin/../lib/gcc/arm-none-eabi/4.3.2/libgcc.a(_clz.o)
 .bss           0x00413028        0x0 /usr/local/cs97/CodeSourcery/Sourcery_G++_Lite/bin/../lib/gcc/arm-none-eabi/4.3.2/../../../../arm-none-eabi/lib/libc.a(lib_a-memcmp.o)
 .bss           0x00413028        0x0 /usr/local/cs97/CodeSourcery/Sourcery_G++_Lite/bin/../lib/gcc/arm-none-eabi/4.3.2/../../../../arm-none-eabi/lib/libc.a(lib_a-memcpy.o)
 .bss           0x00413028        0x0 /usr/local/cs97/CodeSourcery/Sourcery_G++_Lite/bin/../lib/gcc/arm-none-eabi/4.3.2/../../../../arm-none-eabi/lib/libc.a(lib_a-memmove.o)
 .bss           0x00413028        0x0 /usr/local/cs97/CodeSourcery/Sourcery_G++_Lite/bin/../lib/gcc/arm-none-eabi/4.3.2/../../../../arm-none-eabi/lib/libc.a(lib_a-memset.o)
 .bss           0x00413028        0x0 /usr/local/cs97/CodeSourcery/Sourcery_G++_Lite/bin/../lib/gcc/arm-none-eabi/4.3.2/../../../../arm-none-eabi/lib/libc.a(lib_a-strlen.o)
 .bss           0x00413028        0x0 /usr/local/cs97/CodeSourcery/Sourcery_G++_Lite/bin/../lib/gcc/arm-none-eabi/4.3.2/../../../../arm-none-eabi/lib/libc.a(lib_a-strncmp.o)
 *(COMMON)
                0x00413028                . = ALIGN ((. != 0x0)?0x4:0x1)
                0x00413028                _bss_end__ = .
                0x00413028                __bss_end__ = .
                0x00413028                . = ALIGN (0x4)

.heap           0x00413028     0x1000
                0x00413028                __heap_start__ = .
                0x00413028                PROVIDE (__HEAP_START, .)
 *(.heap)
                0x00414028                . = (. + HEAP_SIZE)
 *fill*         0x00413028     0x1000 00
                0x00414028                . = ALIGN (0x4)
                0x00414028                __heap_end__ = .
                0x00414028                PROVIDE (__HEAP_END, .)
                0x00414028                . = ALIGN (0x4)
                0x00414028                __end__ = .
                0x00414028                _end = .
                0x00414028                PROVIDE (end, .)
                0x00414028                . = DATA_SEGMENT_END (.)

.stab           0x00000000      0x210
 *(.stab)
 .stab          0x00000000      0x210 obj_redbee-econotag/start.o

.stabstr        0x00000000       0x3e
 *(.stabstr)
 .stabstr       0x00000000       0x3e obj_redbee-econotag/start.o

.stab.excl
 *(.stab.excl)

.stab.exclstr
 *(.stab.exclstr)

.stab.index
 *(.stab.index)

.stab.indexstr
 *(.stab.indexstr)

.comment        0x00000000      0x930
 *(.comment)
 .comment       0x00000000       0x2a unicast-receiver.co
 .comment       0x0000002a       0x2a obj_redbee-econotag/contiki-mc1322x-main.o
 .comment       0x00000054       0x2a obj_redbee-econotag/symbols.o
 .comment       0x0000007e       0x2a contiki-redbee-econotag.a(rimeaddr.o)
 .comment       0x000000a8       0x2a contiki-redbee-econotag.a(nullmac.o)
 .comment       0x000000d2       0x2a contiki-redbee-econotag.a(nullrdc.o)
 .comment       0x000000fc       0x2a contiki-redbee-econotag.a(mac.o)
 .comment       0x00000126       0x2a contiki-redbee-econotag.a(framer-802154.o)
 .comment       0x00000150       0x2a contiki-redbee-econotag.a(rpl-dag.o)
 .comment       0x0000017a       0x2a contiki-redbee-econotag.a(rpl-icmp6.o)
 .comment       0x000001a4       0x2a contiki-redbee-econotag.a(rpl-timers.o)
 .comment       0x000001ce       0x2a contiki-redbee-econotag.a(rpl-of-etx.o)
 .comment       0x000001f8       0x2a contiki-redbee-econotag.a(process.o)
 .comment       0x00000222       0x2a contiki-redbee-econotag.a(autostart.o)
 .comment       0x0000024c       0x2a contiki-redbee-econotag.a(memb.o)
 .comment       0x00000276       0x2a contiki-redbee-econotag.a(list.o)
 .comment       0x000002a0       0x2a contiki-redbee-econotag.a(etimer.o)
 .comment       0x000002ca       0x2a contiki-redbee-econotag.a(ctimer.o)
 .comment       0x000002f4       0x2a contiki-redbee-econotag.a(stimer.o)
 .comment       0x0000031e       0x2a contiki-redbee-econotag.a(random.o)
 .comment       0x00000348       0x2a contiki-redbee-econotag.a(uip-debug.o)
 .comment       0x00000372       0x2a contiki-redbee-econotag.a(packetbuf.o)
 .comment       0x0000039c       0x2a contiki-redbee-econotag.a(queuebuf.o)
 .comment       0x000003c6       0x2a contiki-redbee-econotag.a(uip6.o)
 .comment       0x000003f0       0x2a contiki-redbee-econotag.a(tcpip.o)
 .comment       0x0000041a       0x2a contiki-redbee-econotag.a(simple-udp.o)
 .comment       0x00000444       0x2a contiki-redbee-econotag.a(uip-icmp6.o)
 .comment       0x0000046e       0x2a contiki-redbee-econotag.a(uip-nd6.o)
 .comment       0x00000498       0x2a contiki-redbee-econotag.a(sicslowpan.o)
 .comment       0x000004c2       0x2a contiki-redbee-econotag.a(neighbor-info.o)
 .comment       0x000004ec       0x2a contiki-redbee-econotag.a(uip-ds6.o)
 .comment       0x00000516       0x2a contiki-redbee-econotag.a(servreg-hack.o)
 .comment       0x00000540       0x2a contiki-redbee-econotag.a(clock.o)
 .comment       0x0000056a       0x2a contiki-redbee-econotag.a(button-sensor.o)
 .comment       0x00000594       0x2a contiki-redbee-econotag.a(sensors.o)
 .comment       0x000005be       0x2a contiki-redbee-econotag.a(watchdog.o)
 .comment       0x000005e8       0x2a contiki-redbee-econotag.a(contiki-crm.o)
 .comment       0x00000612       0x2a contiki-redbee-econotag.a(contiki-maca.o)
 .comment       0x0000063c       0x2a contiki-redbee-econotag.a(contiki-misc.o)
 .comment       0x00000666       0x2a contiki-redbee-econotag.a(leds.o)
 .comment       0x00000690       0x2a contiki-redbee-econotag.a(contiki-uart.o)
 .comment       0x000006ba       0x2a contiki-redbee-econotag.a(dbg-printf.o)
 .comment       0x000006e4       0x2a contiki-redbee-econotag.a(strformat.o)
 .comment       0x0000070e       0x2a contiki-redbee-econotag.a(maca.o)
 .comment       0x00000738       0x2a contiki-redbee-econotag.a(nvm.o)
 .comment       0x00000762       0x2a contiki-redbee-econotag.a(uart1.o)
 .comment       0x0000078c       0x2a contiki-redbee-econotag.a(default_lowleve)
 .comment       0x000007b6       0x2a contiki-redbee-econotag.a(isr.o)
 .comment       0x000007e0       0x2a contiki-redbee-econotag.a(frame802154.o)
 .comment       0x0000080a       0x2a contiki-redbee-econotag.a(rpl.o)
 .comment       0x00000834       0x2a contiki-redbee-econotag.a(timer.o)
 .comment       0x0000085e       0x2a contiki-redbee-econotag.a(uip-udp-packet.)
 .comment       0x00000888       0x2a contiki-redbee-econotag.a(neighbor-attr.o)
 .comment       0x000008b2       0x2a contiki-redbee-econotag.a(debug-uart.o)
 .comment       0x000008dc       0x2a contiki-redbee-econotag.a(leds-arch.o)
 .comment       0x00000906       0x2a contiki-redbee-econotag.a(uart2.o)

.debug
 *(.debug)

.line
 *(.line)

.debug_srcinfo
 *(.debug_srcinfo)

.debug_sfnames
 *(.debug_sfnames)

.debug_aranges  0x00000000      0x6c8
 *(.debug_aranges)
 .debug_aranges
                0x00000000       0x20 unicast-receiver.co
 .debug_aranges
                0x00000020       0x20 obj_redbee-econotag/contiki-mc1322x-main.o
 .debug_aranges
                0x00000040       0x20 contiki-redbee-econotag.a(rimeaddr.o)
 .debug_aranges
                0x00000060       0x20 contiki-redbee-econotag.a(nullmac.o)
 .debug_aranges
                0x00000080       0x20 contiki-redbee-econotag.a(nullrdc.o)
 .debug_aranges
                0x000000a0       0x20 contiki-redbee-econotag.a(mac.o)
 .debug_aranges
                0x000000c0       0x20 contiki-redbee-econotag.a(framer-802154.o)
 .debug_aranges
                0x000000e0       0x20 contiki-redbee-econotag.a(rpl-dag.o)
 .debug_aranges
                0x00000100       0x20 contiki-redbee-econotag.a(rpl-icmp6.o)
 .debug_aranges
                0x00000120       0x20 contiki-redbee-econotag.a(rpl-timers.o)
 .debug_aranges
                0x00000140       0x20 contiki-redbee-econotag.a(rpl-of-etx.o)
 .debug_aranges
                0x00000160       0x20 contiki-redbee-econotag.a(process.o)
 .debug_aranges
                0x00000180       0x20 contiki-redbee-econotag.a(autostart.o)
 .debug_aranges
                0x000001a0       0x20 contiki-redbee-econotag.a(memb.o)
 .debug_aranges
                0x000001c0       0x20 contiki-redbee-econotag.a(list.o)
 .debug_aranges
                0x000001e0       0x20 contiki-redbee-econotag.a(etimer.o)
 .debug_aranges
                0x00000200       0x20 contiki-redbee-econotag.a(ctimer.o)
 .debug_aranges
                0x00000220       0x20 contiki-redbee-econotag.a(stimer.o)
 .debug_aranges
                0x00000240       0x20 contiki-redbee-econotag.a(random.o)
 .debug_aranges
                0x00000260       0x20 contiki-redbee-econotag.a(uip-debug.o)
 .debug_aranges
                0x00000280       0x20 contiki-redbee-econotag.a(packetbuf.o)
 .debug_aranges
                0x000002a0       0x20 contiki-redbee-econotag.a(queuebuf.o)
 .debug_aranges
                0x000002c0       0x20 contiki-redbee-econotag.a(uip6.o)
 .debug_aranges
                0x000002e0       0x20 contiki-redbee-econotag.a(tcpip.o)
 .debug_aranges
                0x00000300       0x20 contiki-redbee-econotag.a(simple-udp.o)
 .debug_aranges
                0x00000320       0x20 contiki-redbee-econotag.a(uip-icmp6.o)
 .debug_aranges
                0x00000340       0x20 contiki-redbee-econotag.a(uip-nd6.o)
 .debug_aranges
                0x00000360       0x20 contiki-redbee-econotag.a(sicslowpan.o)
 .debug_aranges
                0x00000380       0x20 contiki-redbee-econotag.a(neighbor-info.o)
 .debug_aranges
                0x000003a0       0x20 contiki-redbee-econotag.a(uip-ds6.o)
 .debug_aranges
                0x000003c0       0x20 contiki-redbee-econotag.a(servreg-hack.o)
 .debug_aranges
                0x000003e0       0x20 contiki-redbee-econotag.a(clock.o)
 .debug_aranges
                0x00000400       0x20 contiki-redbee-econotag.a(button-sensor.o)
 .debug_aranges
                0x00000420       0x20 contiki-redbee-econotag.a(sensors.o)
 .debug_aranges
                0x00000440       0x20 contiki-redbee-econotag.a(watchdog.o)
 .debug_aranges
                0x00000460       0x20 contiki-redbee-econotag.a(contiki-crm.o)
 .debug_aranges
                0x00000480       0x20 contiki-redbee-econotag.a(contiki-maca.o)
 .debug_aranges
                0x000004a0       0x20 contiki-redbee-econotag.a(contiki-misc.o)
 .debug_aranges
                0x000004c0       0x20 contiki-redbee-econotag.a(leds.o)
 .debug_aranges
                0x000004e0       0x20 contiki-redbee-econotag.a(contiki-uart.o)
 .debug_aranges
                0x00000500       0x20 contiki-redbee-econotag.a(dbg-printf.o)
 .debug_aranges
                0x00000520       0x20 contiki-redbee-econotag.a(strformat.o)
 .debug_aranges
                0x00000540       0x20 contiki-redbee-econotag.a(maca.o)
 .debug_aranges
                0x00000560       0x20 contiki-redbee-econotag.a(uart1.o)
 .debug_aranges
                0x00000580       0x20 contiki-redbee-econotag.a(default_lowleve)
 .debug_aranges
                0x000005a0       0x28 contiki-redbee-econotag.a(isr.o)
 .debug_aranges
                0x000005c8       0x20 contiki-redbee-econotag.a(frame802154.o)
 .debug_aranges
                0x000005e8       0x20 contiki-redbee-econotag.a(rpl.o)
 .debug_aranges
                0x00000608       0x20 contiki-redbee-econotag.a(timer.o)
 .debug_aranges
                0x00000628       0x20 contiki-redbee-econotag.a(uip-udp-packet.)
 .debug_aranges
                0x00000648       0x20 contiki-redbee-econotag.a(neighbor-attr.o)
 .debug_aranges
                0x00000668       0x20 contiki-redbee-econotag.a(debug-uart.o)
 .debug_aranges
                0x00000688       0x20 contiki-redbee-econotag.a(leds-arch.o)
 .debug_aranges
                0x000006a8       0x20 contiki-redbee-econotag.a(uart2.o)

.debug_pubnames
                0x00000000     0x23c2
 *(.debug_pubnames)
 .debug_pubnames
                0x00000000       0x47 unicast-receiver.co
 .debug_pubnames
                0x00000047       0x96 obj_redbee-econotag/contiki-mc1322x-main.o
 .debug_pubnames
                0x000000dd       0x30 obj_redbee-econotag/symbols.o
 .debug_pubnames
                0x0000010d       0x79 contiki-redbee-econotag.a(rimeaddr.o)
 .debug_pubnames
                0x00000186       0x25 contiki-redbee-econotag.a(nullmac.o)
 .debug_pubnames
                0x000001ab       0x25 contiki-redbee-econotag.a(nullrdc.o)
 .debug_pubnames
                0x000001d0       0x2d contiki-redbee-econotag.a(mac.o)
 .debug_pubnames
                0x000001fd       0x24 contiki-redbee-econotag.a(framer-802154.o)
 .debug_pubnames
                0x00000221      0x159 contiki-redbee-econotag.a(rpl-dag.o)
 .debug_pubnames
                0x0000037a       0x64 contiki-redbee-econotag.a(rpl-icmp6.o)
 .debug_pubnames
                0x000003de       0x5c contiki-redbee-econotag.a(rpl-timers.o)
 .debug_pubnames
                0x0000043a       0x21 contiki-redbee-econotag.a(rpl-of-etx.o)
 .debug_pubnames
                0x0000045b      0x10d contiki-redbee-econotag.a(process.o)
 .debug_pubnames
                0x00000568       0x39 contiki-redbee-econotag.a(autostart.o)
 .debug_pubnames
                0x000005a1       0x4d contiki-redbee-econotag.a(memb.o)
 .debug_pubnames
                0x000005ee       0xc3 contiki-redbee-econotag.a(list.o)
 .debug_pubnames
                0x000006b1      0x109 contiki-redbee-econotag.a(etimer.o)
 .debug_pubnames
                0x000007ba       0x8b contiki-redbee-econotag.a(ctimer.o)
 .debug_pubnames
                0x00000845       0x80 contiki-redbee-econotag.a(stimer.o)
 .debug_pubnames
                0x000008c5       0x32 contiki-redbee-econotag.a(random.o)
 .debug_pubnames
                0x000008f7       0x48 contiki-redbee-econotag.a(uip-debug.o)
 .debug_pubnames
                0x0000093f      0x22c contiki-redbee-econotag.a(packetbuf.o)
 .debug_pubnames
                0x00000b6b       0xff contiki-redbee-econotag.a(queuebuf.o)
 .debug_pubnames
                0x00000c6a      0x203 contiki-redbee-econotag.a(uip6.o)
 .debug_pubnames
                0x00000e6d      0x12c contiki-redbee-econotag.a(tcpip.o)
 .debug_pubnames
                0x00000f99       0x6b contiki-redbee-econotag.a(simple-udp.o)
 .debug_pubnames
                0x00001004       0x61 contiki-redbee-econotag.a(uip-icmp6.o)
 .debug_pubnames
                0x00001065       0x52 contiki-redbee-econotag.a(uip-nd6.o)
 .debug_pubnames
                0x000010b7       0x9a contiki-redbee-econotag.a(sicslowpan.o)
 .debug_pubnames
                0x00001151       0x8b contiki-redbee-econotag.a(neighbor-info.o)
 .debug_pubnames
                0x000011dc      0x3d7 contiki-redbee-econotag.a(uip-ds6.o)
 .debug_pubnames
                0x000015b3       0xc5 contiki-redbee-econotag.a(servreg-hack.o)
 .debug_pubnames
                0x00001678       0x6b contiki-redbee-econotag.a(clock.o)
 .debug_pubnames
                0x000016e3       0x31 contiki-redbee-econotag.a(button-sensor.o)
 .debug_pubnames
                0x00001714       0x80 contiki-redbee-econotag.a(sensors.o)
 .debug_pubnames
                0x00001794       0x73 contiki-redbee-econotag.a(watchdog.o)
 .debug_pubnames
                0x00001807       0x54 contiki-redbee-econotag.a(contiki-crm.o)
 .debug_pubnames
                0x0000185b      0x17c contiki-redbee-econotag.a(contiki-maca.o)
 .debug_pubnames
                0x000019d7       0x39 contiki-redbee-econotag.a(contiki-misc.o)
 .debug_pubnames
                0x00001a10       0x75 contiki-redbee-econotag.a(leds.o)
 .debug_pubnames
                0x00001a85       0x3e contiki-redbee-econotag.a(contiki-uart.o)
 .debug_pubnames
                0x00001ac3       0x1d contiki-redbee-econotag.a(dbg-printf.o)
 .debug_pubnames
                0x00001ae0       0x32 contiki-redbee-econotag.a(strformat.o)
 .debug_pubnames
                0x00001b12      0x389 contiki-redbee-econotag.a(maca.o)
 .debug_pubnames
                0x00001e9b       0x5a contiki-redbee-econotag.a(nvm.o)
 .debug_pubnames
                0x00001ef5       0x96 contiki-redbee-econotag.a(uart1.o)
 .debug_pubnames
                0x00001f8b       0x46 contiki-redbee-econotag.a(default_lowleve)
 .debug_pubnames
                0x00001fd1       0x39 contiki-redbee-econotag.a(isr.o)
 .debug_pubnames
                0x0000200a       0x56 contiki-redbee-econotag.a(frame802154.o)
 .debug_pubnames
                0x00002060       0x7b contiki-redbee-econotag.a(rpl.o)
 .debug_pubnames
                0x000020db       0x68 contiki-redbee-econotag.a(timer.o)
 .debug_pubnames
                0x00002143       0x44 contiki-redbee-econotag.a(uip-udp-packet.)
 .debug_pubnames
                0x00002187      0x137 contiki-redbee-econotag.a(neighbor-attr.o)
 .debug_pubnames
                0x000022be       0x25 contiki-redbee-econotag.a(debug-uart.o)
 .debug_pubnames
                0x000022e3       0x49 contiki-redbee-econotag.a(leds-arch.o)
 .debug_pubnames
                0x0000232c       0x96 contiki-redbee-econotag.a(uart2.o)

.debug_info     0x00000000    0x95684
 *(.debug_info .gnu.linkonce.wi.*)
 .debug_info    0x00000000     0x1782 unicast-receiver.co
 .debug_info    0x00001782     0x9883 obj_redbee-econotag/contiki-mc1322x-main.o
 .debug_info    0x0000b005       0xab obj_redbee-econotag/symbols.o
 .debug_info    0x0000b0b0      0xbe6 contiki-redbee-econotag.a(rimeaddr.o)
 .debug_info    0x0000bc96      0xe13 contiki-redbee-econotag.a(nullmac.o)
 .debug_info    0x0000caa9     0x1196 contiki-redbee-econotag.a(nullrdc.o)
 .debug_info    0x0000dc3f      0xb7f contiki-redbee-econotag.a(mac.o)
 .debug_info    0x0000e7be     0x1063 contiki-redbee-econotag.a(framer-802154.o)
 .debug_info    0x0000f821     0x1ba6 contiki-redbee-econotag.a(rpl-dag.o)
 .debug_info    0x000113c7     0x1f31 contiki-redbee-econotag.a(rpl-icmp6.o)
 .debug_info    0x000132f8     0x1376 contiki-redbee-econotag.a(rpl-timers.o)
 .debug_info    0x0001466e     0x143f contiki-redbee-econotag.a(rpl-of-etx.o)
 .debug_info    0x00015aad      0xf86 contiki-redbee-econotag.a(process.o)
 .debug_info    0x00016a33      0xc1c contiki-redbee-econotag.a(autostart.o)
 .debug_info    0x0001764f      0xc16 contiki-redbee-econotag.a(memb.o)
 .debug_info    0x00018265      0x31e contiki-redbee-econotag.a(list.o)
 .debug_info    0x00018583      0xf1d contiki-redbee-econotag.a(etimer.o)
 .debug_info    0x000194a0      0xec7 contiki-redbee-econotag.a(ctimer.o)
 .debug_info    0x0001a367      0xbfc contiki-redbee-econotag.a(stimer.o)
 .debug_info    0x0001af63      0xb18 contiki-redbee-econotag.a(random.o)
 .debug_info    0x0001ba7b      0xc2c contiki-redbee-econotag.a(uip-debug.o)
 .debug_info    0x0001c6a7     0x102b contiki-redbee-econotag.a(packetbuf.o)
 .debug_info    0x0001d6d2      0xfd4 contiki-redbee-econotag.a(queuebuf.o)
 .debug_info    0x0001e6a6     0x19f8 contiki-redbee-econotag.a(uip6.o)
 .debug_info    0x0002009e     0x1b65 contiki-redbee-econotag.a(tcpip.o)
 .debug_info    0x00021c03     0x1194 contiki-redbee-econotag.a(simple-udp.o)
 .debug_info    0x00022d97      0xfb8 contiki-redbee-econotag.a(uip-icmp6.o)
 .debug_info    0x00023d4f     0x1239 contiki-redbee-econotag.a(uip-nd6.o)
 .debug_info    0x00024f88     0x179e contiki-redbee-econotag.a(sicslowpan.o)
 .debug_info    0x00026726      0xf0d contiki-redbee-econotag.a(neighbor-info.o)
 .debug_info    0x00027633     0x1b05 contiki-redbee-econotag.a(uip-ds6.o)
 .debug_info    0x00029138     0x13a7 contiki-redbee-econotag.a(servreg-hack.o)
 .debug_info    0x0002a4df     0x8e02 contiki-redbee-econotag.a(clock.o)
 .debug_info    0x000332e1     0x8e75 contiki-redbee-econotag.a(button-sensor.o)
 .debug_info    0x0003c156      0xe0d contiki-redbee-econotag.a(sensors.o)
 .debug_info    0x0003cf63       0x85 contiki-redbee-econotag.a(watchdog.o)
 .debug_info    0x0003cfe8     0x8d84 contiki-redbee-econotag.a(contiki-crm.o)
 .debug_info    0x00045d6c     0x953c contiki-redbee-econotag.a(contiki-maca.o)
 .debug_info    0x0004f2a8     0x8dc4 contiki-redbee-econotag.a(contiki-misc.o)
 .debug_info    0x0005806c      0xc27 contiki-redbee-econotag.a(leds.o)
 .debug_info    0x00058c93       0x81 contiki-redbee-econotag.a(contiki-uart.o)
 .debug_info    0x00058d14      0x1be contiki-redbee-econotag.a(dbg-printf.o)
 .debug_info    0x00058ed2      0x719 contiki-redbee-econotag.a(strformat.o)
 .debug_info    0x000595eb     0x9b58 contiki-redbee-econotag.a(maca.o)
 .debug_info    0x00063143      0x1f8 contiki-redbee-econotag.a(nvm.o)
 .debug_info    0x0006333b     0x8e33 contiki-redbee-econotag.a(uart1.o)
 .debug_info    0x0006c16e     0x8e6d contiki-redbee-econotag.a(default_lowleve)
 .debug_info    0x00074fdb     0x8dc1 contiki-redbee-econotag.a(isr.o)
 .debug_info    0x0007dd9c      0xed2 contiki-redbee-econotag.a(frame802154.o)
 .debug_info    0x0007ec6e     0x160a contiki-redbee-econotag.a(rpl.o)
 .debug_info    0x00080278      0xbe7 contiki-redbee-econotag.a(timer.o)
 .debug_info    0x00080e5f      0xe14 contiki-redbee-econotag.a(uip-udp-packet.)
 .debug_info    0x00081c73     0x11f6 contiki-redbee-econotag.a(neighbor-attr.o)
 .debug_info    0x00082e69      0xb1e contiki-redbee-econotag.a(debug-uart.o)
 .debug_info    0x00083987     0x8eca contiki-redbee-econotag.a(leds-arch.o)
 .debug_info    0x0008c851     0x8e33 contiki-redbee-econotag.a(uart2.o)

.debug_abbrev   0x00000000     0x7d90
 *(.debug_abbrev)
 .debug_abbrev  0x00000000      0x2e8 unicast-receiver.co
 .debug_abbrev  0x000002e8      0x39f obj_redbee-econotag/contiki-mc1322x-main.o
 .debug_abbrev  0x00000687       0x8b obj_redbee-econotag/symbols.o
 .debug_abbrev  0x00000712      0x1b0 contiki-redbee-econotag.a(rimeaddr.o)
 .debug_abbrev  0x000008c2      0x27c contiki-redbee-econotag.a(nullmac.o)
 .debug_abbrev  0x00000b3e      0x332 contiki-redbee-econotag.a(nullrdc.o)
 .debug_abbrev  0x00000e70      0x160 contiki-redbee-econotag.a(mac.o)
 .debug_abbrev  0x00000fd0      0x2c3 contiki-redbee-econotag.a(framer-802154.o)
 .debug_abbrev  0x00001293      0x3b5 contiki-redbee-econotag.a(rpl-dag.o)
 .debug_abbrev  0x00001648      0x3f0 contiki-redbee-econotag.a(rpl-icmp6.o)
 .debug_abbrev  0x00001a38      0x248 contiki-redbee-econotag.a(rpl-timers.o)
 .debug_abbrev  0x00001c80      0x27e contiki-redbee-econotag.a(rpl-of-etx.o)
 .debug_abbrev  0x00001efe      0x318 contiki-redbee-econotag.a(process.o)
 .debug_abbrev  0x00002216      0x195 contiki-redbee-econotag.a(autostart.o)
 .debug_abbrev  0x000023ab      0x189 contiki-redbee-econotag.a(memb.o)
 .debug_abbrev  0x00002534      0x177 contiki-redbee-econotag.a(list.o)
 .debug_abbrev  0x000026ab      0x2ab contiki-redbee-econotag.a(etimer.o)
 .debug_abbrev  0x00002956      0x260 contiki-redbee-econotag.a(ctimer.o)
 .debug_abbrev  0x00002bb6      0x172 contiki-redbee-econotag.a(stimer.o)
 .debug_abbrev  0x00002d28      0x144 contiki-redbee-econotag.a(random.o)
 .debug_abbrev  0x00002e6c      0x16a contiki-redbee-econotag.a(uip-debug.o)
 .debug_abbrev  0x00002fd6      0x2e1 contiki-redbee-econotag.a(packetbuf.o)
 .debug_abbrev  0x000032b7      0x26d contiki-redbee-econotag.a(queuebuf.o)
 .debug_abbrev  0x00003524      0x352 contiki-redbee-econotag.a(uip6.o)
 .debug_abbrev  0x00003876      0x458 contiki-redbee-econotag.a(tcpip.o)
 .debug_abbrev  0x00003cce      0x2b0 contiki-redbee-econotag.a(simple-udp.o)
 .debug_abbrev  0x00003f7e      0x1fc contiki-redbee-econotag.a(uip-icmp6.o)
 .debug_abbrev  0x0000417a      0x287 contiki-redbee-econotag.a(uip-nd6.o)
 .debug_abbrev  0x00004401      0x3da contiki-redbee-econotag.a(sicslowpan.o)
 .debug_abbrev  0x000047db      0x2e7 contiki-redbee-econotag.a(neighbor-info.o)
 .debug_abbrev  0x00004ac2      0x300 contiki-redbee-econotag.a(uip-ds6.o)
 .debug_abbrev  0x00004dc2      0x3f8 contiki-redbee-econotag.a(servreg-hack.o)
 .debug_abbrev  0x000051ba      0x1f7 contiki-redbee-econotag.a(clock.o)
 .debug_abbrev  0x000053b1      0x1ce contiki-redbee-econotag.a(button-sensor.o)
 .debug_abbrev  0x0000557f      0x263 contiki-redbee-econotag.a(sensors.o)
 .debug_abbrev  0x000057e2       0x29 contiki-redbee-econotag.a(watchdog.o)
 .debug_abbrev  0x0000580b      0x1ab contiki-redbee-econotag.a(contiki-crm.o)
 .debug_abbrev  0x000059b6      0x36c contiki-redbee-econotag.a(contiki-maca.o)
 .debug_abbrev  0x00005d22      0x1dd contiki-redbee-econotag.a(contiki-misc.o)
 .debug_abbrev  0x00005eff      0x190 contiki-redbee-econotag.a(leds.o)
 .debug_abbrev  0x0000608f       0x7c contiki-redbee-econotag.a(contiki-uart.o)
 .debug_abbrev  0x0000610b      0x110 contiki-redbee-econotag.a(dbg-printf.o)
 .debug_abbrev  0x0000621b      0x240 contiki-redbee-econotag.a(strformat.o)
 .debug_abbrev  0x0000645b      0x39d contiki-redbee-econotag.a(maca.o)
 .debug_abbrev  0x000067f8       0x89 contiki-redbee-econotag.a(nvm.o)
 .debug_abbrev  0x00006881      0x1c9 contiki-redbee-econotag.a(uart1.o)
 .debug_abbrev  0x00006a4a      0x1b6 contiki-redbee-econotag.a(default_lowleve)
 .debug_abbrev  0x00006c00      0x1c5 contiki-redbee-econotag.a(isr.o)
 .debug_abbrev  0x00006dc5      0x20c contiki-redbee-econotag.a(frame802154.o)
 .debug_abbrev  0x00006fd1      0x282 contiki-redbee-econotag.a(rpl.o)
 .debug_abbrev  0x00007253      0x17f contiki-redbee-econotag.a(timer.o)
 .debug_abbrev  0x000073d2      0x243 contiki-redbee-econotag.a(uip-udp-packet.)
 .debug_abbrev  0x00007615      0x2cc contiki-redbee-econotag.a(neighbor-attr.o)
 .debug_abbrev  0x000078e1      0x135 contiki-redbee-econotag.a(debug-uart.o)
 .debug_abbrev  0x00007a16      0x1b1 contiki-redbee-econotag.a(leds-arch.o)
 .debug_abbrev  0x00007bc7      0x1c9 contiki-redbee-econotag.a(uart2.o)

.debug_line     0x00000000     0x7171
 *(.debug_line)
 .debug_line    0x00000000      0x26f unicast-receiver.co
 .debug_line    0x0000026f      0x41d obj_redbee-econotag/contiki-mc1322x-main.o
 .debug_line    0x0000068c       0x58 obj_redbee-econotag/symbols.o
 .debug_line    0x000006e4      0x169 contiki-redbee-econotag.a(rimeaddr.o)
 .debug_line    0x0000084d      0x19e contiki-redbee-econotag.a(nullmac.o)
 .debug_line    0x000009eb      0x20e contiki-redbee-econotag.a(nullrdc.o)
 .debug_line    0x00000bf9      0x11c contiki-redbee-econotag.a(mac.o)
 .debug_line    0x00000d15      0x1f6 contiki-redbee-econotag.a(framer-802154.o)
 .debug_line    0x00000f0b      0x40a contiki-redbee-econotag.a(rpl-dag.o)
 .debug_line    0x00001315      0x401 contiki-redbee-econotag.a(rpl-icmp6.o)
 .debug_line    0x00001716      0x287 contiki-redbee-econotag.a(rpl-timers.o)
 .debug_line    0x0000199d      0x29b contiki-redbee-econotag.a(rpl-of-etx.o)
 .debug_line    0x00001c38      0x1ec contiki-redbee-econotag.a(process.o)
 .debug_line    0x00001e24      0x13f contiki-redbee-econotag.a(autostart.o)
 .debug_line    0x00001f63      0x13e contiki-redbee-econotag.a(memb.o)
 .debug_line    0x000020a1       0xc0 contiki-redbee-econotag.a(list.o)
 .debug_line    0x00002161      0x209 contiki-redbee-econotag.a(etimer.o)
 .debug_line    0x0000236a      0x219 contiki-redbee-econotag.a(ctimer.o)
 .debug_line    0x00002583      0x140 contiki-redbee-econotag.a(stimer.o)
 .debug_line    0x000026c3      0x113 contiki-redbee-econotag.a(random.o)
 .debug_line    0x000027d6      0x16d contiki-redbee-econotag.a(uip-debug.o)
 .debug_line    0x00002943      0x1f5 contiki-redbee-econotag.a(packetbuf.o)
 .debug_line    0x00002b38      0x1d6 contiki-redbee-econotag.a(queuebuf.o)
 .debug_line    0x00002d0e      0x50d contiki-redbee-econotag.a(uip6.o)
 .debug_line    0x0000321b      0x329 contiki-redbee-econotag.a(tcpip.o)
 .debug_line    0x00003544      0x249 contiki-redbee-econotag.a(simple-udp.o)
 .debug_line    0x0000378d      0x216 contiki-redbee-econotag.a(uip-icmp6.o)
 .debug_line    0x000039a3      0x286 contiki-redbee-econotag.a(uip-nd6.o)
 .debug_line    0x00003c29      0x439 contiki-redbee-econotag.a(sicslowpan.o)
 .debug_line    0x00004062      0x1eb contiki-redbee-econotag.a(neighbor-info.o)
 .debug_line    0x0000424d      0x3cf contiki-redbee-econotag.a(uip-ds6.o)
 .debug_line    0x0000461c      0x32a contiki-redbee-econotag.a(servreg-hack.o)
 .debug_line    0x00004946      0x1b4 contiki-redbee-econotag.a(clock.o)
 .debug_line    0x00004afa      0x207 contiki-redbee-econotag.a(button-sensor.o)
 .debug_line    0x00004d01      0x196 contiki-redbee-econotag.a(sensors.o)
 .debug_line    0x00004e97       0x66 contiki-redbee-econotag.a(watchdog.o)
 .debug_line    0x00004efd      0x178 contiki-redbee-econotag.a(contiki-crm.o)
 .debug_line    0x00005075      0x2e9 contiki-redbee-econotag.a(contiki-maca.o)
 .debug_line    0x0000535e      0x1e6 contiki-redbee-econotag.a(contiki-misc.o)
 .debug_line    0x00005544      0x13a contiki-redbee-econotag.a(leds.o)
 .debug_line    0x0000567e       0x65 contiki-redbee-econotag.a(contiki-uart.o)
 .debug_line    0x000056e3       0xf3 contiki-redbee-econotag.a(dbg-printf.o)
 .debug_line    0x000057d6      0x1fb contiki-redbee-econotag.a(strformat.o)
 .debug_line    0x000059d1      0x38e contiki-redbee-econotag.a(maca.o)
 .debug_line    0x00005d5f      0x101 contiki-redbee-econotag.a(nvm.o)
 .debug_line    0x00005e60      0x17d contiki-redbee-econotag.a(uart1.o)
 .debug_line    0x00005fdd      0x19e contiki-redbee-econotag.a(default_lowleve)
 .debug_line    0x0000617b      0x179 contiki-redbee-econotag.a(isr.o)
 .debug_line    0x000062f4      0x1e4 contiki-redbee-econotag.a(frame802154.o)
 .debug_line    0x000064d8      0x2b9 contiki-redbee-econotag.a(rpl.o)
 .debug_line    0x00006791      0x170 contiki-redbee-econotag.a(timer.o)
 .debug_line    0x00006901      0x1ba contiki-redbee-econotag.a(uip-udp-packet.)
 .debug_line    0x00006abb      0x2c5 contiki-redbee-econotag.a(neighbor-attr.o)
 .debug_line    0x00006d80      0x118 contiki-redbee-econotag.a(debug-uart.o)
 .debug_line    0x00006e98      0x15c contiki-redbee-econotag.a(leds-arch.o)
 .debug_line    0x00006ff4      0x17d contiki-redbee-econotag.a(uart2.o)

.debug_frame    0x00000000     0x2c04
 *(.debug_frame)
 .debug_frame   0x00000000       0x50 unicast-receiver.co
 .debug_frame   0x00000050       0xa8 obj_redbee-econotag/contiki-mc1322x-main.o
 .debug_frame   0x000000f8       0x58 contiki-redbee-econotag.a(rimeaddr.o)
 .debug_frame   0x00000150       0x90 contiki-redbee-econotag.a(nullmac.o)
 .debug_frame   0x000001e0       0xb4 contiki-redbee-econotag.a(nullrdc.o)
 .debug_frame   0x00000294       0x28 contiki-redbee-econotag.a(mac.o)
 .debug_frame   0x000002bc       0x84 contiki-redbee-econotag.a(framer-802154.o)
 .debug_frame   0x00000340      0x21c contiki-redbee-econotag.a(rpl-dag.o)
 .debug_frame   0x0000055c       0xe4 contiki-redbee-econotag.a(rpl-icmp6.o)
 .debug_frame   0x00000640       0xc4 contiki-redbee-econotag.a(rpl-timers.o)
 .debug_frame   0x00000704       0x98 contiki-redbee-econotag.a(rpl-of-etx.o)
 .debug_frame   0x0000079c      0x140 contiki-redbee-econotag.a(process.o)
 .debug_frame   0x000008dc       0x40 contiki-redbee-econotag.a(autostart.o)
 .debug_frame   0x0000091c       0x74 contiki-redbee-econotag.a(memb.o)
 .debug_frame   0x00000990      0x120 contiki-redbee-econotag.a(list.o)
 .debug_frame   0x00000ab0      0x144 contiki-redbee-econotag.a(etimer.o)
 .debug_frame   0x00000bf4       0xcc contiki-redbee-econotag.a(ctimer.o)
 .debug_frame   0x00000cc0       0x9c contiki-redbee-econotag.a(stimer.o)
 .debug_frame   0x00000d5c       0x40 contiki-redbee-econotag.a(random.o)
 .debug_frame   0x00000d9c       0x4c contiki-redbee-econotag.a(uip-debug.o)
 .debug_frame   0x00000de8      0x1e0 contiki-redbee-econotag.a(packetbuf.o)
 .debug_frame   0x00000fc8       0xec contiki-redbee-econotag.a(queuebuf.o)
 .debug_frame   0x000010b4      0x1e0 contiki-redbee-econotag.a(uip6.o)
 .debug_frame   0x00001294      0x190 contiki-redbee-econotag.a(tcpip.o)
 .debug_frame   0x00001424       0x90 contiki-redbee-econotag.a(simple-udp.o)
 .debug_frame   0x000014b4       0x70 contiki-redbee-econotag.a(uip-icmp6.o)
 .debug_frame   0x00001524       0x88 contiki-redbee-econotag.a(uip-nd6.o)
 .debug_frame   0x000015ac      0x124 contiki-redbee-econotag.a(sicslowpan.o)
 .debug_frame   0x000016d0       0xa4 contiki-redbee-econotag.a(neighbor-info.o)
 .debug_frame   0x00001774      0x3d4 contiki-redbee-econotag.a(uip-ds6.o)
 .debug_frame   0x00001b48       0xdc contiki-redbee-econotag.a(servreg-hack.o)
 .debug_frame   0x00001c24       0x70 contiki-redbee-econotag.a(clock.o)
 .debug_frame   0x00001c94       0x70 contiki-redbee-econotag.a(button-sensor.o)
 .debug_frame   0x00001d04       0xa4 contiki-redbee-econotag.a(sensors.o)
 .debug_frame   0x00001da8       0x60 contiki-redbee-econotag.a(watchdog.o)
 .debug_frame   0x00001e08       0x60 contiki-redbee-econotag.a(contiki-crm.o)
 .debug_frame   0x00001e68      0x128 contiki-redbee-econotag.a(contiki-maca.o)
 .debug_frame   0x00001f90       0x58 contiki-redbee-econotag.a(contiki-misc.o)
 .debug_frame   0x00001fe8       0xd0 contiki-redbee-econotag.a(leds.o)
 .debug_frame   0x000020b8       0x20 contiki-redbee-econotag.a(contiki-uart.o)
 .debug_frame   0x000020d8       0x44 contiki-redbee-econotag.a(dbg-printf.o)
 .debug_frame   0x0000211c       0x9c contiki-redbee-econotag.a(strformat.o)
 .debug_frame   0x000021b8      0x2f8 contiki-redbee-econotag.a(maca.o)
 .debug_frame   0x000024b0       0x58 contiki-redbee-econotag.a(uart1.o)
 .debug_frame   0x00002508       0x68 contiki-redbee-econotag.a(default_lowleve)
 .debug_frame   0x00002570       0x44 contiki-redbee-econotag.a(isr.o)
 .debug_frame   0x000025b4       0xa0 contiki-redbee-econotag.a(frame802154.o)
 .debug_frame   0x00002654       0xb8 contiki-redbee-econotag.a(rpl.o)
 .debug_frame   0x0000270c       0x84 contiki-redbee-econotag.a(timer.o)
 .debug_frame   0x00002790       0x48 contiki-redbee-econotag.a(uip-udp-packet.)
 .debug_frame   0x000027d8      0x158 contiki-redbee-econotag.a(neighbor-attr.o)
 .debug_frame   0x00002930       0x2c contiki-redbee-econotag.a(debug-uart.o)
 .debug_frame   0x0000295c       0x50 contiki-redbee-econotag.a(leds-arch.o)
 .debug_frame   0x000029ac       0x58 contiki-redbee-econotag.a(uart2.o)
 .debug_frame   0x00002a04       0x20 /usr/local/cs97/CodeSourcery/Sourcery_G++_Lite/bin/../lib/gcc/arm-none-eabi/4.3.2/libgcc.a(_udivsi3.o)
 .debug_frame   0x00002a24       0x20 /usr/local/cs97/CodeSourcery/Sourcery_G++_Lite/bin/../lib/gcc/arm-none-eabi/4.3.2/libgcc.a(_divsi3.o)
 .debug_frame   0x00002a44       0x58 /usr/local/cs97/CodeSourcery/Sourcery_G++_Lite/bin/../lib/gcc/arm-none-eabi/4.3.2/libgcc.a(bpabi.o)
 .debug_frame   0x00002a9c       0x38 /usr/local/cs97/CodeSourcery/Sourcery_G++_Lite/bin/../lib/gcc/arm-none-eabi/4.3.2/libgcc.a(_divdi3.o)
 .debug_frame   0x00002ad4       0x38 /usr/local/cs97/CodeSourcery/Sourcery_G++_Lite/bin/../lib/gcc/arm-none-eabi/4.3.2/libgcc.a(_udivdi3.o)
 .debug_frame   0x00002b0c       0x2c /usr/local/cs97/CodeSourcery/Sourcery_G++_Lite/bin/../lib/gcc/arm-none-eabi/4.3.2/../../../../arm-none-eabi/lib/libc.a(lib_a-memcmp.o)
 .debug_frame   0x00002b38       0x2c /usr/local/cs97/CodeSourcery/Sourcery_G++_Lite/bin/../lib/gcc/arm-none-eabi/4.3.2/../../../../arm-none-eabi/lib/libc.a(lib_a-memcpy.o)
 .debug_frame   0x00002b64       0x2c /usr/local/cs97/CodeSourcery/Sourcery_G++_Lite/bin/../lib/gcc/arm-none-eabi/4.3.2/../../../../arm-none-eabi/lib/libc.a(lib_a-memmove.o)
 .debug_frame   0x00002b90       0x28 /usr/local/cs97/CodeSourcery/Sourcery_G++_Lite/bin/../lib/gcc/arm-none-eabi/4.3.2/../../../../arm-none-eabi/lib/libc.a(lib_a-memset.o)
 .debug_frame   0x00002bb8       0x20 /usr/local/cs97/CodeSourcery/Sourcery_G++_Lite/bin/../lib/gcc/arm-none-eabi/4.3.2/../../../../arm-none-eabi/lib/libc.a(lib_a-strlen.o)
 .debug_frame   0x00002bd8       0x2c /usr/local/cs97/CodeSourcery/Sourcery_G++_Lite/bin/../lib/gcc/arm-none-eabi/4.3.2/../../../../arm-none-eabi/lib/libc.a(lib_a-strncmp.o)

.debug_str      0x00000000     0x7f9d
 *(.debug_str)
 .debug_str     0x00000000      0xaea unicast-receiver.co
                                0xcff (size before relaxing)
 .debug_str     0x00000aea     0x3311 obj_redbee-econotag/contiki-mc1322x-main.o
                               0x3f84 (size before relaxing)
 .debug_str     0x00003dfb       0x20 obj_redbee-econotag/symbols.o
                                 0x5e (size before relaxing)
 .debug_str     0x00003e1b       0x7f contiki-redbee-econotag.a(rimeaddr.o)
                                0x703 (size before relaxing)
 .debug_str     0x00003e9a       0x53 contiki-redbee-econotag.a(nullmac.o)
                                0x7b6 (size before relaxing)
 .debug_str     0x00003eed      0x3f9 contiki-redbee-econotag.a(nullrdc.o)
                                0xbe8 (size before relaxing)
 .debug_str     0x000042e6       0x46 contiki-redbee-econotag.a(mac.o)
                                0x71b (size before relaxing)
 .debug_str     0x0000432c      0x1a5 contiki-redbee-econotag.a(framer-802154.o)
                                0xbd7 (size before relaxing)
 .debug_str     0x000044d1      0x2a4 contiki-redbee-econotag.a(rpl-dag.o)
                                0xd45 (size before relaxing)
 .debug_str     0x00004775      0x23f contiki-redbee-econotag.a(rpl-icmp6.o)
                               0x114c (size before relaxing)
 .debug_str     0x000049b4       0xd1 contiki-redbee-econotag.a(rpl-timers.o)
                                0xaee (size before relaxing)
 .debug_str     0x00004a85       0x9b contiki-redbee-econotag.a(rpl-of-etx.o)
                                0xb0c (size before relaxing)
 .debug_str     0x00004b20      0x17e contiki-redbee-econotag.a(process.o)
                                0x84e (size before relaxing)
 .debug_str     0x00004c9e       0x49 contiki-redbee-econotag.a(autostart.o)
                                0x706 (size before relaxing)
 .debug_str     0x00004ce7       0x55 contiki-redbee-econotag.a(memb.o)
                                0x6cb (size before relaxing)
 .debug_str     0x00004d3c       0xad contiki-redbee-econotag.a(list.o)
                                0x100 (size before relaxing)
 .debug_str     0x00004de9      0x142 contiki-redbee-econotag.a(etimer.o)
                                0x85b (size before relaxing)
 .debug_str     0x00004f2b       0xbc contiki-redbee-econotag.a(ctimer.o)
                                0x7ef (size before relaxing)
 .debug_str     0x00004fe7       0x7d contiki-redbee-econotag.a(stimer.o)
                                0x6f4 (size before relaxing)
 .debug_str     0x00005064       0x44 contiki-redbee-econotag.a(random.o)
                                0x6aa (size before relaxing)
 .debug_str     0x000050a8       0x58 contiki-redbee-econotag.a(uip-debug.o)
                                0x713 (size before relaxing)
 .debug_str     0x00005100      0x1ee contiki-redbee-econotag.a(packetbuf.o)
                                0xbcc (size before relaxing)
 .debug_str     0x000052ee      0x13b contiki-redbee-econotag.a(queuebuf.o)
                                0xb33 (size before relaxing)
 .debug_str     0x00005429      0x3ab contiki-redbee-econotag.a(uip6.o)
                                0xd4d (size before relaxing)
 .debug_str     0x000057d4      0x1a8 contiki-redbee-econotag.a(tcpip.o)
                                0xd11 (size before relaxing)
 .debug_str     0x0000597c       0xb4 contiki-redbee-econotag.a(simple-udp.o)
                                0x99a (size before relaxing)
 .debug_str     0x00005a30       0x8e contiki-redbee-econotag.a(uip-icmp6.o)
                                0x919 (size before relaxing)
 .debug_str     0x00005abe      0x103 contiki-redbee-econotag.a(uip-nd6.o)
                                0xa38 (size before relaxing)
 .debug_str     0x00005bc1      0x26f contiki-redbee-econotag.a(sicslowpan.o)
                                0xe6b (size before relaxing)
 .debug_str     0x00005e30      0x13e contiki-redbee-econotag.a(neighbor-info.o)
                                0xb6f (size before relaxing)
 .debug_str     0x00005f6e      0x43e contiki-redbee-econotag.a(uip-ds6.o)
                                0xe10 (size before relaxing)
 .debug_str     0x000063ac      0x205 contiki-redbee-econotag.a(servreg-hack.o)
                                0xa85 (size before relaxing)
 .debug_str     0x000065b1       0x72 contiki-redbee-econotag.a(clock.o)
                               0x39b5 (size before relaxing)
 .debug_str     0x00006623       0x57 contiki-redbee-econotag.a(button-sensor.o)
                               0x3947 (size before relaxing)
 .debug_str     0x0000667a       0xaa contiki-redbee-econotag.a(sensors.o)
                                0x7da (size before relaxing)
 .debug_str     0x00006724       0x7b contiki-redbee-econotag.a(watchdog.o)
                                 0xa9 (size before relaxing)
 .debug_str     0x0000679f       0x6b contiki-redbee-econotag.a(contiki-crm.o)
                               0x3912 (size before relaxing)
 .debug_str     0x0000680a      0x1ed contiki-redbee-econotag.a(contiki-maca.o)
                               0x3f82 (size before relaxing)
 .debug_str     0x000069f7       0x73 contiki-redbee-econotag.a(contiki-misc.o)
                               0x3917 (size before relaxing)
 .debug_str     0x00006a6a       0x7b contiki-redbee-econotag.a(leds.o)
                                0x6f0 (size before relaxing)
 .debug_str     0x00006ae5       0x42 contiki-redbee-econotag.a(contiki-uart.o)
                                 0x98 (size before relaxing)
 .debug_str     0x00006b27       0xb2 contiki-redbee-econotag.a(dbg-printf.o)
                                0x187 (size before relaxing)
 .debug_str     0x00006bd9      0x136 contiki-redbee-econotag.a(strformat.o)
                                0x242 (size before relaxing)
 .debug_str     0x00006d0f      0x6f0 contiki-redbee-econotag.a(maca.o)
                               0x426f (size before relaxing)
 .debug_str     0x000073ff       0x35 contiki-redbee-econotag.a(nvm.o)
                                0x2b2 (size before relaxing)
 .debug_str     0x00007434       0x97 contiki-redbee-econotag.a(uart1.o)
                               0x394a (size before relaxing)
 .debug_str     0x000074cb       0x91 contiki-redbee-econotag.a(default_lowleve)
                               0x39ee (size before relaxing)
 .debug_str     0x0000755c       0x54 contiki-redbee-econotag.a(isr.o)
                               0x398b (size before relaxing)
 .debug_str     0x000075b0       0xd9 contiki-redbee-econotag.a(frame802154.o)
                                0x8c0 (size before relaxing)
 .debug_str     0x00007689       0xaa contiki-redbee-econotag.a(rpl.o)
                                0xc06 (size before relaxing)
 .debug_str     0x00007733       0x26 contiki-redbee-econotag.a(timer.o)
                                0x6f0 (size before relaxing)
 .debug_str     0x00007759       0x77 contiki-redbee-econotag.a(uip-udp-packet.)
                                0x7d5 (size before relaxing)
 .debug_str     0x000077d0      0x1f3 contiki-redbee-econotag.a(neighbor-attr.o)
                                0x99c (size before relaxing)
 .debug_str     0x000079c3       0x3f contiki-redbee-econotag.a(debug-uart.o)
                                0x6a0 (size before relaxing)
 .debug_str     0x00007a02      0x51a contiki-redbee-econotag.a(leds-arch.o)
                               0x3daf (size before relaxing)
 .debug_str     0x00007f1c       0x81 contiki-redbee-econotag.a(uart2.o)
                               0x394a (size before relaxing)

.debug_loc      0x00000000     0x9677
 *(.debug_loc)
 .debug_loc     0x00000000      0x181 unicast-receiver.co
 .debug_loc     0x00000181      0x19d obj_redbee-econotag/contiki-mc1322x-main.o
 .debug_loc     0x0000031e       0xc2 contiki-redbee-econotag.a(rimeaddr.o)
 .debug_loc     0x000003e0       0xb5 contiki-redbee-econotag.a(nullmac.o)
 .debug_loc     0x00000495      0x165 contiki-redbee-econotag.a(nullrdc.o)
 .debug_loc     0x000005fa       0xb8 contiki-redbee-econotag.a(mac.o)
 .debug_loc     0x000006b2       0xec contiki-redbee-econotag.a(framer-802154.o)
 .debug_loc     0x0000079e      0xa6e contiki-redbee-econotag.a(rpl-dag.o)
 .debug_loc     0x0000120c      0x7c1 contiki-redbee-econotag.a(rpl-icmp6.o)
 .debug_loc     0x000019cd      0x1e7 contiki-redbee-econotag.a(rpl-timers.o)
 .debug_loc     0x00001bb4      0x1d4 contiki-redbee-econotag.a(rpl-of-etx.o)
 .debug_loc     0x00001d88      0x3bc contiki-redbee-econotag.a(process.o)
 .debug_loc     0x00002144       0x7a contiki-redbee-econotag.a(autostart.o)
 .debug_loc     0x000021be      0x16c contiki-redbee-econotag.a(memb.o)
 .debug_loc     0x0000232a      0x328 contiki-redbee-econotag.a(list.o)
 .debug_loc     0x00002652      0x407 contiki-redbee-econotag.a(etimer.o)
 .debug_loc     0x00002a59      0x303 contiki-redbee-econotag.a(ctimer.o)
 .debug_loc     0x00002d5c      0x139 contiki-redbee-econotag.a(stimer.o)
 .debug_loc     0x00002e95       0x51 contiki-redbee-econotag.a(random.o)
 .debug_loc     0x00002ee6      0x108 contiki-redbee-econotag.a(uip-debug.o)
 .debug_loc     0x00002fee      0x31d contiki-redbee-econotag.a(packetbuf.o)
 .debug_loc     0x0000330b      0x1e3 contiki-redbee-econotag.a(queuebuf.o)
 .debug_loc     0x000034ee      0x5b7 contiki-redbee-econotag.a(uip6.o)
 .debug_loc     0x00003aa5      0x581 contiki-redbee-econotag.a(tcpip.o)
 .debug_loc     0x00004026      0x309 contiki-redbee-econotag.a(simple-udp.o)
 .debug_loc     0x0000432f      0x164 contiki-redbee-econotag.a(uip-icmp6.o)
 .debug_loc     0x00004493      0x1e8 contiki-redbee-econotag.a(uip-nd6.o)
 .debug_loc     0x0000467b      0x758 contiki-redbee-econotag.a(sicslowpan.o)
 .debug_loc     0x00004dd3      0x23f contiki-redbee-econotag.a(neighbor-info.o)
 .debug_loc     0x00005012      0xced contiki-redbee-econotag.a(uip-ds6.o)
 .debug_loc     0x00005cff      0x483 contiki-redbee-econotag.a(servreg-hack.o)
 .debug_loc     0x00006182       0x3e contiki-redbee-econotag.a(clock.o)
 .debug_loc     0x000061c0       0xff contiki-redbee-econotag.a(button-sensor.o)
 .debug_loc     0x000062bf      0x212 contiki-redbee-econotag.a(sensors.o)
 .debug_loc     0x000064d1       0x70 contiki-redbee-econotag.a(contiki-crm.o)
 .debug_loc     0x00006541      0x2a8 contiki-redbee-econotag.a(contiki-maca.o)
 .debug_loc     0x000067e9       0x50 contiki-redbee-econotag.a(contiki-misc.o)
 .debug_loc     0x00006839      0x16a contiki-redbee-econotag.a(leds.o)
 .debug_loc     0x000069a3       0xd0 contiki-redbee-econotag.a(dbg-printf.o)
 .debug_loc     0x00006a73      0xd05 contiki-redbee-econotag.a(strformat.o)
 .debug_loc     0x00007778      0xdf4 contiki-redbee-econotag.a(maca.o)
 .debug_loc     0x0000856c       0xd5 contiki-redbee-econotag.a(uart1.o)
 .debug_loc     0x00008641      0x1a6 contiki-redbee-econotag.a(default_lowleve)
 .debug_loc     0x000087e7       0x1f contiki-redbee-econotag.a(isr.o)
 .debug_loc     0x00008806      0x29e contiki-redbee-econotag.a(frame802154.o)
 .debug_loc     0x00008aa4      0x325 contiki-redbee-econotag.a(rpl.o)
 .debug_loc     0x00008dc9       0xfc contiki-redbee-econotag.a(timer.o)
 .debug_loc     0x00008ec5      0x1a3 contiki-redbee-econotag.a(uip-udp-packet.)
 .debug_loc     0x00009068      0x470 contiki-redbee-econotag.a(neighbor-attr.o)
 .debug_loc     0x000094d8       0x79 contiki-redbee-econotag.a(debug-uart.o)
 .debug_loc     0x00009551       0x51 contiki-redbee-econotag.a(leds-arch.o)
 .debug_loc     0x000095a2       0xd5 contiki-redbee-econotag.a(uart2.o)

.debug_macinfo
 *(.debug_macinfo)

.debug_weaknames
 *(.debug_weaknames)

.debug_funcnames
 *(.debug_funcnames)

.debug_typenames
 *(.debug_typenames)

.debug_varnames
 *(.debug_varnames)

.debug_pubtypes
 *(.debug_pubtypes)

.debug_ranges   0x00000000      0x4e8
 *(.debug_ranges)
 .debug_ranges  0x00000000       0x48 unicast-receiver.co
 .debug_ranges  0x00000048       0xb0 contiki-redbee-econotag.a(rpl-dag.o)
 .debug_ranges  0x000000f8      0x100 contiki-redbee-econotag.a(rpl-icmp6.o)
 .debug_ranges  0x000001f8       0x18 contiki-redbee-econotag.a(ctimer.o)
 .debug_ranges  0x00000210       0x38 contiki-redbee-econotag.a(tcpip.o)
 .debug_ranges  0x00000248       0x58 contiki-redbee-econotag.a(simple-udp.o)
 .debug_ranges  0x000002a0      0x170 contiki-redbee-econotag.a(sicslowpan.o)
 .debug_ranges  0x00000410       0x18 contiki-redbee-econotag.a(neighbor-info.o)
 .debug_ranges  0x00000428       0x70 contiki-redbee-econotag.a(servreg-hack.o)
 .debug_ranges  0x00000498       0x18 contiki-redbee-econotag.a(sensors.o)
 .debug_ranges  0x000004b0       0x18 contiki-redbee-econotag.a(contiki-maca.o)
 .debug_ranges  0x000004c8       0x20 contiki-redbee-econotag.a(isr.o)

.gnu.attributes
 *(.gnu.attributes)

.note.gnu.arm.ident
 *(.note.gnu.arm.ident)

/DISCARD/
 *(.note.GNU-stack)
 *(.gnu_debuglink)
OUTPUT(unicast-receiver.elf elf32-littlearm)

.ARM.attributes
                0x00000000       0x32
 .ARM.attributes
                0x00000000       0x30 unicast-receiver.co
 .ARM.attributes
                0x00000030       0x32 obj_redbee-econotag/contiki-mc1322x-main.o
 .ARM.attributes
                0x00000062       0x1a obj_redbee-econotag/start.o
 .ARM.attributes
                0x0000007c       0x2e obj_redbee-econotag/symbols.o
 .ARM.attributes
                0x000000aa       0x32 contiki-redbee-econotag.a(rimeaddr.o)
 .ARM.attributes
                0x000000dc       0x30 contiki-redbee-econotag.a(nullmac.o)
 .ARM.attributes
                0x0000010c       0x30 contiki-redbee-econotag.a(nullrdc.o)
 .ARM.attributes
                0x0000013c       0x32 contiki-redbee-econotag.a(mac.o)
 .ARM.attributes
                0x0000016e       0x30 contiki-redbee-econotag.a(framer-802154.o)
 .ARM.attributes
                0x0000019e       0x32 contiki-redbee-econotag.a(rpl-dag.o)
 .ARM.attributes
                0x000001d0       0x32 contiki-redbee-econotag.a(rpl-icmp6.o)
 .ARM.attributes
                0x00000202       0x32 contiki-redbee-econotag.a(rpl-timers.o)
 .ARM.attributes
                0x00000234       0x30 contiki-redbee-econotag.a(rpl-of-etx.o)
 .ARM.attributes
                0x00000264       0x32 contiki-redbee-econotag.a(process.o)
 .ARM.attributes
                0x00000296       0x32 contiki-redbee-econotag.a(autostart.o)
 .ARM.attributes
                0x000002c8       0x32 contiki-redbee-econotag.a(memb.o)
 .ARM.attributes
                0x000002fa       0x32 contiki-redbee-econotag.a(list.o)
 .ARM.attributes
                0x0000032c       0x32 contiki-redbee-econotag.a(etimer.o)
 .ARM.attributes
                0x0000035e       0x32 contiki-redbee-econotag.a(ctimer.o)
 .ARM.attributes
                0x00000390       0x32 contiki-redbee-econotag.a(stimer.o)
 .ARM.attributes
                0x000003c2       0x32 contiki-redbee-econotag.a(random.o)
 .ARM.attributes
                0x000003f4       0x32 contiki-redbee-econotag.a(uip-debug.o)
 .ARM.attributes
                0x00000426       0x32 contiki-redbee-econotag.a(packetbuf.o)
 .ARM.attributes
                0x00000458       0x32 contiki-redbee-econotag.a(queuebuf.o)
 .ARM.attributes
                0x0000048a       0x32 contiki-redbee-econotag.a(uip6.o)
 .ARM.attributes
                0x000004bc       0x32 contiki-redbee-econotag.a(tcpip.o)
 .ARM.attributes
                0x000004ee       0x32 contiki-redbee-econotag.a(simple-udp.o)
 .ARM.attributes
                0x00000520       0x32 contiki-redbee-econotag.a(uip-icmp6.o)
 .ARM.attributes
                0x00000552       0x32 contiki-redbee-econotag.a(uip-nd6.o)
 .ARM.attributes
                0x00000584       0x32 contiki-redbee-econotag.a(sicslowpan.o)
 .ARM.attributes
                0x000005b6       0x32 contiki-redbee-econotag.a(neighbor-info.o)
 .ARM.attributes
                0x000005e8       0x32 contiki-redbee-econotag.a(uip-ds6.o)
 .ARM.attributes
                0x0000061a       0x32 contiki-redbee-econotag.a(servreg-hack.o)
 .ARM.attributes
                0x0000064c       0x32 contiki-redbee-econotag.a(clock.o)
 .ARM.attributes
                0x0000067e       0x32 contiki-redbee-econotag.a(button-sensor.o)
 .ARM.attributes
                0x000006b0       0x32 contiki-redbee-econotag.a(sensors.o)
 .ARM.attributes
                0x000006e2       0x32 contiki-redbee-econotag.a(watchdog.o)
 .ARM.attributes
                0x00000714       0x32 contiki-redbee-econotag.a(contiki-crm.o)
 .ARM.attributes
                0x00000746       0x32 contiki-redbee-econotag.a(contiki-maca.o)
 .ARM.attributes
                0x00000778       0x32 contiki-redbee-econotag.a(contiki-misc.o)
 .ARM.attributes
                0x000007aa       0x32 contiki-redbee-econotag.a(leds.o)
 .ARM.attributes
                0x000007dc       0x32 contiki-redbee-econotag.a(contiki-uart.o)
 .ARM.attributes
                0x0000080e       0x32 contiki-redbee-econotag.a(dbg-printf.o)
 .ARM.attributes
                0x00000840       0x32 contiki-redbee-econotag.a(strformat.o)
 .ARM.attributes
                0x00000872       0x32 contiki-redbee-econotag.a(maca.o)
 .ARM.attributes
                0x000008a4       0x2e contiki-redbee-econotag.a(nvm.o)
 .ARM.attributes
                0x000008d2       0x32 contiki-redbee-econotag.a(uart1.o)
 .ARM.attributes
                0x00000904       0x32 contiki-redbee-econotag.a(default_lowleve)
 .ARM.attributes
                0x00000936       0x30 contiki-redbee-econotag.a(isr.o)
 .ARM.attributes
                0x00000966       0x32 contiki-redbee-econotag.a(frame802154.o)
 .ARM.attributes
                0x00000998       0x32 contiki-redbee-econotag.a(rpl.o)
 .ARM.attributes
                0x000009ca       0x32 contiki-redbee-econotag.a(timer.o)
 .ARM.attributes
                0x000009fc       0x32 contiki-redbee-econotag.a(uip-udp-packet.)
 .ARM.attributes
                0x00000a2e       0x32 contiki-redbee-econotag.a(neighbor-attr.o)
 .ARM.attributes
                0x00000a60       0x32 contiki-redbee-econotag.a(debug-uart.o)
 .ARM.attributes
                0x00000a92       0x32 contiki-redbee-econotag.a(leds-arch.o)
 .ARM.attributes
                0x00000ac4       0x32 contiki-redbee-econotag.a(uart2.o)
 .ARM.attributes
                0x00000af6       0x14 /usr/local/cs97/CodeSourcery/Sourcery_G++_Lite/bin/../lib/gcc/arm-none-eabi/4.3.2/libgcc.a(_udivsi3.o)
 .ARM.attributes
                0x00000b0a       0x14 /usr/local/cs97/CodeSourcery/Sourcery_G++_Lite/bin/../lib/gcc/arm-none-eabi/4.3.2/libgcc.a(_divsi3.o)
 .ARM.attributes
                0x00000b1e       0x14 /usr/local/cs97/CodeSourcery/Sourcery_G++_Lite/bin/../lib/gcc/arm-none-eabi/4.3.2/libgcc.a(_dvmd_tls.o)
 .ARM.attributes
                0x00000b32       0x14 /usr/local/cs97/CodeSourcery/Sourcery_G++_Lite/bin/../lib/gcc/arm-none-eabi/4.3.2/libgcc.a(_aeabi_uldivmod.o)
 .ARM.attributes
                0x00000b46       0x2e /usr/local/cs97/CodeSourcery/Sourcery_G++_Lite/bin/../lib/gcc/arm-none-eabi/4.3.2/libgcc.a(bpabi.o)
 .ARM.attributes
                0x00000b74       0x2e /usr/local/cs97/CodeSourcery/Sourcery_G++_Lite/bin/../lib/gcc/arm-none-eabi/4.3.2/libgcc.a(_divdi3.o)
 .ARM.attributes
                0x00000ba2       0x2e /usr/local/cs97/CodeSourcery/Sourcery_G++_Lite/bin/../lib/gcc/arm-none-eabi/4.3.2/libgcc.a(_udivdi3.o)
 .ARM.attributes
                0x00000bd0       0x2c /usr/local/cs97/CodeSourcery/Sourcery_G++_Lite/bin/../lib/gcc/arm-none-eabi/4.3.2/libgcc.a(_clz.o)
 .ARM.attributes
                0x00000bfc       0x2e /usr/local/cs97/CodeSourcery/Sourcery_G++_Lite/bin/../lib/gcc/arm-none-eabi/4.3.2/../../../../arm-none-eabi/lib/libc.a(lib_a-memcmp.o)
 .ARM.attributes
                0x00000c2a       0x2e /usr/local/cs97/CodeSourcery/Sourcery_G++_Lite/bin/../lib/gcc/arm-none-eabi/4.3.2/../../../../arm-none-eabi/lib/libc.a(lib_a-memcpy.o)
 .ARM.attributes
                0x00000c58       0x2e /usr/local/cs97/CodeSourcery/Sourcery_G++_Lite/bin/../lib/gcc/arm-none-eabi/4.3.2/../../../../arm-none-eabi/lib/libc.a(lib_a-memmove.o)
 .ARM.attributes
                0x00000c86       0x2e /usr/local/cs97/CodeSourcery/Sourcery_G++_Lite/bin/../lib/gcc/arm-none-eabi/4.3.2/../../../../arm-none-eabi/lib/libc.a(lib_a-memset.o)
 .ARM.attributes
                0x00000cb4       0x2e /usr/local/cs97/CodeSourcery/Sourcery_G++_Lite/bin/../lib/gcc/arm-none-eabi/4.3.2/../../../../arm-none-eabi/lib/libc.a(lib_a-strlen.o)
 .ARM.attributes
                0x00000ce2       0x2e /usr/local/cs97/CodeSourcery/Sourcery_G++_Lite/bin/../lib/gcc/arm-none-eabi/4.3.2/../../../../arm-none-eabi/lib/libc.a(lib_a-strncmp.o)
